
CLICO.elf:     file format elf32-avr

Sections:
Idx Name          Size      VMA       LMA       File off  Algn
  0 .data         00000160  00800100  00003626  000036ba  2**0
                  CONTENTS, ALLOC, LOAD, DATA
  1 .text         00003626  00000000  00000000  00000094  2**1
                  CONTENTS, ALLOC, LOAD, READONLY, CODE
  2 .bss          00000268  00800260  00800260  0000381a  2**0
                  ALLOC
  3 .stab         000033a8  00000000  00000000  0000381c  2**2
                  CONTENTS, READONLY, DEBUGGING
  4 .stabstr      00000901  00000000  00000000  00006bc4  2**0
                  CONTENTS, READONLY, DEBUGGING
  5 .debug_aranges 00000080  00000000  00000000  000074c5  2**0
                  CONTENTS, READONLY, DEBUGGING
  6 .debug_pubnames 00000643  00000000  00000000  00007545  2**0
                  CONTENTS, READONLY, DEBUGGING
  7 .debug_info   00001efb  00000000  00000000  00007b88  2**0
                  CONTENTS, READONLY, DEBUGGING
  8 .debug_abbrev 000006c7  00000000  00000000  00009a83  2**0
                  CONTENTS, READONLY, DEBUGGING
  9 .debug_line   000029ab  00000000  00000000  0000a14a  2**0
                  CONTENTS, READONLY, DEBUGGING
 10 .debug_frame  00000330  00000000  00000000  0000caf8  2**2
                  CONTENTS, READONLY, DEBUGGING
 11 .debug_str    00000890  00000000  00000000  0000ce28  2**0
                  CONTENTS, READONLY, DEBUGGING
 12 .debug_loc    00001975  00000000  00000000  0000d6b8  2**0
                  CONTENTS, READONLY, DEBUGGING
 13 .debug_pubtypes 00000133  00000000  00000000  0000f02d  2**0
                  CONTENTS, READONLY, DEBUGGING
 14 .debug_ranges 00000060  00000000  00000000  0000f160  2**0
                  CONTENTS, READONLY, DEBUGGING

Disassembly of section .text:

00000000 <__vectors>:
       0:	0c 94 c7 00 	jmp	0x18e	; 0x18e <__ctors_end>
       4:	0c 94 e6 00 	jmp	0x1cc	; 0x1cc <__bad_interrupt>
       8:	0c 94 e6 00 	jmp	0x1cc	; 0x1cc <__bad_interrupt>
       c:	0c 94 e6 00 	jmp	0x1cc	; 0x1cc <__bad_interrupt>
      10:	0c 94 e6 00 	jmp	0x1cc	; 0x1cc <__bad_interrupt>
      14:	0c 94 e6 00 	jmp	0x1cc	; 0x1cc <__bad_interrupt>
      18:	0c 94 e6 00 	jmp	0x1cc	; 0x1cc <__bad_interrupt>
      1c:	0c 94 e6 00 	jmp	0x1cc	; 0x1cc <__bad_interrupt>
      20:	0c 94 e6 00 	jmp	0x1cc	; 0x1cc <__bad_interrupt>
      24:	0c 94 39 07 	jmp	0xe72	; 0xe72 <__vector_9>
      28:	0c 94 e6 00 	jmp	0x1cc	; 0x1cc <__bad_interrupt>
      2c:	0c 94 e6 00 	jmp	0x1cc	; 0x1cc <__bad_interrupt>
      30:	0c 94 e6 00 	jmp	0x1cc	; 0x1cc <__bad_interrupt>
      34:	0c 94 e6 00 	jmp	0x1cc	; 0x1cc <__bad_interrupt>
      38:	0c 94 e6 00 	jmp	0x1cc	; 0x1cc <__bad_interrupt>
      3c:	0c 94 e2 05 	jmp	0xbc4	; 0xbc4 <__vector_15>
      40:	0c 94 e6 00 	jmp	0x1cc	; 0x1cc <__bad_interrupt>
      44:	0c 94 e6 00 	jmp	0x1cc	; 0x1cc <__bad_interrupt>
      48:	0c 94 e6 00 	jmp	0x1cc	; 0x1cc <__bad_interrupt>
      4c:	0c 94 e6 00 	jmp	0x1cc	; 0x1cc <__bad_interrupt>
      50:	0c 94 e6 00 	jmp	0x1cc	; 0x1cc <__bad_interrupt>
      54:	0c 94 b8 12 	jmp	0x2570	; 0x2570 <__vector_21>
      58:	0c 94 e6 00 	jmp	0x1cc	; 0x1cc <__bad_interrupt>
      5c:	0c 94 e6 00 	jmp	0x1cc	; 0x1cc <__bad_interrupt>
      60:	0c 94 e6 00 	jmp	0x1cc	; 0x1cc <__bad_interrupt>
      64:	0c 94 e6 00 	jmp	0x1cc	; 0x1cc <__bad_interrupt>
      68:	0c 94 e6 00 	jmp	0x1cc	; 0x1cc <__bad_interrupt>
      6c:	0c 94 e6 00 	jmp	0x1cc	; 0x1cc <__bad_interrupt>
      70:	0c 94 e6 00 	jmp	0x1cc	; 0x1cc <__bad_interrupt>
      74:	0c 94 e6 00 	jmp	0x1cc	; 0x1cc <__bad_interrupt>
      78:	0c 94 e6 00 	jmp	0x1cc	; 0x1cc <__bad_interrupt>
      7c:	0c 94 e6 00 	jmp	0x1cc	; 0x1cc <__bad_interrupt>
      80:	0c 94 e6 00 	jmp	0x1cc	; 0x1cc <__bad_interrupt>
      84:	0c 94 e6 00 	jmp	0x1cc	; 0x1cc <__bad_interrupt>
      88:	0c 94 e6 00 	jmp	0x1cc	; 0x1cc <__bad_interrupt>

0000008c <__c.1912>:
      8c:	6e 61 6e 00                                         nan.

00000090 <__c.1910>:
      90:	69 6e 66 00 00 40 7a 10 f3 5a 00 a0 72 4e 18 09     inf..@z..Z..rN..
      a0:	00 10 a5 d4 e8 00 00 e8 76 48 17 00 00 e4 0b 54     ........vH.....T
      b0:	02 00 00 ca 9a 3b 00 00 00 e1 f5 05 00 00 80 96     .....;..........
      c0:	98 00 00 00 40 42 0f 00 00 00 a0 86 01 00 00 00     ....@B..........
      d0:	10 27 00 00 00 00 e8 03 00 00 00 00 64 00 00 00     .'..........d...
      e0:	00 00 0a 00 00 00 00 00 01 00 00 00 00 00 2c 76     ..............,v
      f0:	d8 88 dc 67 4f 08 23 df c1 df ae 59 e1 b1 b7 96     ...gO.#....Y....
     100:	e5 e3 e4 53 c6 3a e6 51 99 76 96 e8 e6 c2 84 26     ...S.:.Q.v.....&
     110:	eb 89 8c 9b 62 ed 40 7c 6f fc ef bc 9c 9f 40 f2     ....b.@|o.....@.
     120:	ba a5 6f a5 f4 90 05 5a 2a f7 5c 93 6b 6c f9 67     ..o....Z*.\.kl.g
     130:	6d c1 1b fc e0 e4 0d 47 fe f5 20 e6 b5 00 d0 ed     m......G.. .....
     140:	90 2e 03 00 94 35 77 05 00 80 84 1e 08 00 00 20     .....5w........ 
     150:	4e 0a 00 00 00 c8 0c 33 33 33 33 0f 98 6e 12 83     N......3333..n..
     160:	11 41 ef 8d 21 14 89 3b e6 55 16 cf fe e6 db 18     .A..!..;.U......
     170:	d1 84 4b 38 1b f7 7c 1d 90 1d a4 bb e4 24 20 32     ..K8..|......$ 2
     180:	84 72 5e 22 81 00 c9 f1 24 ec a1 e5 3d 27           .r^"....$...='

0000018e <__ctors_end>:
     18e:	11 24       	eor	r1, r1
     190:	1f be       	out	0x3f, r1	; 63
     192:	cf ef       	ldi	r28, 0xFF	; 255
     194:	d0 e1       	ldi	r29, 0x10	; 16
     196:	de bf       	out	0x3e, r29	; 62
     198:	cd bf       	out	0x3d, r28	; 61

0000019a <__do_copy_data>:
     19a:	12 e0       	ldi	r17, 0x02	; 2
     19c:	a0 e0       	ldi	r26, 0x00	; 0
     19e:	b1 e0       	ldi	r27, 0x01	; 1
     1a0:	e6 e2       	ldi	r30, 0x26	; 38
     1a2:	f6 e3       	ldi	r31, 0x36	; 54
     1a4:	00 e0       	ldi	r16, 0x00	; 0
     1a6:	0b bf       	out	0x3b, r16	; 59
     1a8:	02 c0       	rjmp	.+4      	; 0x1ae <__do_copy_data+0x14>
     1aa:	07 90       	elpm	r0, Z+
     1ac:	0d 92       	st	X+, r0
     1ae:	a0 36       	cpi	r26, 0x60	; 96
     1b0:	b1 07       	cpc	r27, r17
     1b2:	d9 f7       	brne	.-10     	; 0x1aa <__do_copy_data+0x10>

000001b4 <__do_clear_bss>:
     1b4:	14 e0       	ldi	r17, 0x04	; 4
     1b6:	a0 e6       	ldi	r26, 0x60	; 96
     1b8:	b2 e0       	ldi	r27, 0x02	; 2
     1ba:	01 c0       	rjmp	.+2      	; 0x1be <.do_clear_bss_start>

000001bc <.do_clear_bss_loop>:
     1bc:	1d 92       	st	X+, r1

000001be <.do_clear_bss_start>:
     1be:	a8 3c       	cpi	r26, 0xC8	; 200
     1c0:	b1 07       	cpc	r27, r17
     1c2:	e1 f7       	brne	.-8      	; 0x1bc <.do_clear_bss_loop>
     1c4:	0e 94 d6 0a 	call	0x15ac	; 0x15ac <main>
     1c8:	0c 94 11 1b 	jmp	0x3622	; 0x3622 <_exit>

000001cc <__bad_interrupt>:
     1cc:	0c 94 00 00 	jmp	0	; 0x0 <__vectors>

000001d0 <changeEditTime>:
int isLeapYear(byte year){
	if((year%4)==0) return 1;
	return 0;
}

void changeEditTime(byte bPosition, byte bButton){ //Da cambiare!
     1d0:	98 2f       	mov	r25, r24
     1d2:	46 2f       	mov	r20, r22
	int bMunita;
	int bMdecine;
	int bSunita;
	int bSdecine;
	
	bHunita = tTimeEditing.bHour % 10;
     1d4:	30 91 a9 04 	lds	r19, 0x04A9
	bHdecine = tTimeEditing.bHour / 10;
     1d8:	a0 91 a9 04 	lds	r26, 0x04A9
	bMunita = tTimeEditing.bMin % 10;
     1dc:	80 91 a8 04 	lds	r24, 0x04A8
	bMdecine = tTimeEditing.bMin / 10;
     1e0:	f0 91 a8 04 	lds	r31, 0x04A8
	bSunita = tTimeEditing.bSec % 10;
     1e4:	20 91 a7 04 	lds	r18, 0x04A7
	bSdecine = tTimeEditing.bSec / 10;
     1e8:	e0 91 a7 04 	lds	r30, 0x04A7
		
	switch(bPosition){
     1ec:	93 30       	cpi	r25, 0x03	; 3
     1ee:	09 f4       	brne	.+2      	; 0x1f2 <changeEditTime+0x22>
     1f0:	59 c0       	rjmp	.+178    	; 0x2a4 <changeEditTime+0xd4>
     1f2:	94 30       	cpi	r25, 0x04	; 4
     1f4:	30 f4       	brcc	.+12     	; 0x202 <changeEditTime+0x32>
     1f6:	99 23       	and	r25, r25
     1f8:	71 f0       	breq	.+28     	; 0x216 <changeEditTime+0x46>
     1fa:	91 30       	cpi	r25, 0x01	; 1
     1fc:	09 f0       	breq	.+2      	; 0x200 <changeEditTime+0x30>
     1fe:	ce c0       	rjmp	.+412    	; 0x39c <changeEditTime+0x1cc>
     200:	23 c0       	rjmp	.+70     	; 0x248 <changeEditTime+0x78>
     202:	96 30       	cpi	r25, 0x06	; 6
     204:	09 f4       	brne	.+2      	; 0x208 <changeEditTime+0x38>
     206:	8b c0       	rjmp	.+278    	; 0x31e <changeEditTime+0x14e>
     208:	97 30       	cpi	r25, 0x07	; 7
     20a:	09 f4       	brne	.+2      	; 0x20e <changeEditTime+0x3e>
     20c:	9e c0       	rjmp	.+316    	; 0x34a <changeEditTime+0x17a>
     20e:	94 30       	cpi	r25, 0x04	; 4
     210:	09 f0       	breq	.+2      	; 0x214 <changeEditTime+0x44>
     212:	c4 c0       	rjmp	.+392    	; 0x39c <changeEditTime+0x1cc>
     214:	60 c0       	rjmp	.+192    	; 0x2d6 <changeEditTime+0x106>
		case 0:
			;EDIT_TIME_DATE(0,BTN_A,BTN_B,bButton, tTimeEditing.bHour, bHdecine, bHunita, 2,3)
     216:	62 30       	cpi	r22, 0x02	; 2
     218:	49 f4       	brne	.+18     	; 0x22c <changeEditTime+0x5c>
     21a:	80 91 a9 04 	lds	r24, 0x04A9
     21e:	8e 30       	cpi	r24, 0x0E	; 14
     220:	08 f0       	brcs	.+2      	; 0x224 <changeEditTime+0x54>
     222:	bc c0       	rjmp	.+376    	; 0x39c <changeEditTime+0x1cc>
     224:	80 91 a9 04 	lds	r24, 0x04A9
     228:	86 5f       	subi	r24, 0xF6	; 246
     22a:	0b c0       	rjmp	.+22     	; 0x242 <changeEditTime+0x72>
     22c:	64 30       	cpi	r22, 0x04	; 4
     22e:	09 f0       	breq	.+2      	; 0x232 <changeEditTime+0x62>
     230:	b5 c0       	rjmp	.+362    	; 0x39c <changeEditTime+0x1cc>
     232:	80 91 a9 04 	lds	r24, 0x04A9
     236:	8a 30       	cpi	r24, 0x0A	; 10
     238:	08 f4       	brcc	.+2      	; 0x23c <changeEditTime+0x6c>
     23a:	b0 c0       	rjmp	.+352    	; 0x39c <changeEditTime+0x1cc>
     23c:	80 91 a9 04 	lds	r24, 0x04A9
     240:	8a 50       	subi	r24, 0x0A	; 10
     242:	80 93 a9 04 	sts	0x04A9, r24
     246:	08 95       	ret
	int bMunita;
	int bMdecine;
	int bSunita;
	int bSdecine;
	
	bHunita = tTimeEditing.bHour % 10;
     248:	5a e0       	ldi	r21, 0x0A	; 10
     24a:	83 2f       	mov	r24, r19
     24c:	65 2f       	mov	r22, r21
     24e:	0e 94 36 19 	call	0x326c	; 0x326c <__udivmodqi4>
     252:	29 2f       	mov	r18, r25
     254:	30 e0       	ldi	r19, 0x00	; 0
	bHdecine = tTimeEditing.bHour / 10;
     256:	8a 2f       	mov	r24, r26
     258:	0e 94 36 19 	call	0x326c	; 0x326c <__udivmodqi4>
	switch(bPosition){
		case 0:
			;EDIT_TIME_DATE(0,BTN_A,BTN_B,bButton, tTimeEditing.bHour, bHdecine, bHunita, 2,3)
			break;
		case 1:
			;EDIT_TIME_DATE(1,BTN_A,BTN_B,bButton, tTimeEditing.bHour, bHdecine, bHunita, 2,3)
     25c:	42 30       	cpi	r20, 0x02	; 2
     25e:	81 f4       	brne	.+32     	; 0x280 <changeEditTime+0xb0>
     260:	23 30       	cpi	r18, 0x03	; 3
     262:	31 05       	cpc	r19, r1
     264:	54 f0       	brlt	.+20     	; 0x27a <changeEditTime+0xaa>
	int bMdecine;
	int bSunita;
	int bSdecine;
	
	bHunita = tTimeEditing.bHour % 10;
	bHdecine = tTimeEditing.bHour / 10;
     266:	48 2f       	mov	r20, r24
     268:	50 e0       	ldi	r21, 0x00	; 0
	switch(bPosition){
		case 0:
			;EDIT_TIME_DATE(0,BTN_A,BTN_B,bButton, tTimeEditing.bHour, bHdecine, bHunita, 2,3)
			break;
		case 1:
			;EDIT_TIME_DATE(1,BTN_A,BTN_B,bButton, tTimeEditing.bHour, bHdecine, bHunita, 2,3)
     26a:	42 30       	cpi	r20, 0x02	; 2
     26c:	51 05       	cpc	r21, r1
     26e:	0c f0       	brlt	.+2      	; 0x272 <changeEditTime+0xa2>
     270:	95 c0       	rjmp	.+298    	; 0x39c <changeEditTime+0x1cc>
     272:	29 30       	cpi	r18, 0x09	; 9
     274:	31 05       	cpc	r19, r1
     276:	09 f4       	brne	.+2      	; 0x27a <changeEditTime+0xaa>
     278:	91 c0       	rjmp	.+290    	; 0x39c <changeEditTime+0x1cc>
     27a:	2f 5f       	subi	r18, 0xFF	; 255
     27c:	3f 4f       	sbci	r19, 0xFF	; 255
     27e:	09 c0       	rjmp	.+18     	; 0x292 <changeEditTime+0xc2>
     280:	44 30       	cpi	r20, 0x04	; 4
     282:	09 f0       	breq	.+2      	; 0x286 <changeEditTime+0xb6>
     284:	8b c0       	rjmp	.+278    	; 0x39c <changeEditTime+0x1cc>
     286:	21 15       	cp	r18, r1
     288:	31 05       	cpc	r19, r1
     28a:	09 f4       	brne	.+2      	; 0x28e <changeEditTime+0xbe>
     28c:	87 c0       	rjmp	.+270    	; 0x39c <changeEditTime+0x1cc>
     28e:	21 50       	subi	r18, 0x01	; 1
     290:	30 40       	sbci	r19, 0x00	; 0
     292:	88 0f       	add	r24, r24
     294:	98 2f       	mov	r25, r24
     296:	99 0f       	add	r25, r25
     298:	99 0f       	add	r25, r25
     29a:	98 0f       	add	r25, r24
     29c:	92 0f       	add	r25, r18
     29e:	90 93 a9 04 	sts	0x04A9, r25
     2a2:	08 95       	ret
			break;
		case 3:
			;EDIT_TIME_DATE(0,BTN_A,BTN_B,bButton, tTimeEditing.bMin, bMdecine, bMunita, 5,9)
     2a4:	62 30       	cpi	r22, 0x02	; 2
     2a6:	49 f4       	brne	.+18     	; 0x2ba <changeEditTime+0xea>
     2a8:	80 91 a8 04 	lds	r24, 0x04A8
     2ac:	82 33       	cpi	r24, 0x32	; 50
     2ae:	08 f0       	brcs	.+2      	; 0x2b2 <changeEditTime+0xe2>
     2b0:	75 c0       	rjmp	.+234    	; 0x39c <changeEditTime+0x1cc>
     2b2:	80 91 a8 04 	lds	r24, 0x04A8
     2b6:	86 5f       	subi	r24, 0xF6	; 246
     2b8:	0b c0       	rjmp	.+22     	; 0x2d0 <changeEditTime+0x100>
     2ba:	64 30       	cpi	r22, 0x04	; 4
     2bc:	09 f0       	breq	.+2      	; 0x2c0 <changeEditTime+0xf0>
     2be:	6e c0       	rjmp	.+220    	; 0x39c <changeEditTime+0x1cc>
     2c0:	80 91 a8 04 	lds	r24, 0x04A8
     2c4:	8a 30       	cpi	r24, 0x0A	; 10
     2c6:	08 f4       	brcc	.+2      	; 0x2ca <changeEditTime+0xfa>
     2c8:	69 c0       	rjmp	.+210    	; 0x39c <changeEditTime+0x1cc>
     2ca:	80 91 a8 04 	lds	r24, 0x04A8
     2ce:	8a 50       	subi	r24, 0x0A	; 10
     2d0:	80 93 a8 04 	sts	0x04A8, r24
     2d4:	08 95       	ret
	int bSunita;
	int bSdecine;
	
	bHunita = tTimeEditing.bHour % 10;
	bHdecine = tTimeEditing.bHour / 10;
	bMunita = tTimeEditing.bMin % 10;
     2d6:	5a e0       	ldi	r21, 0x0A	; 10
     2d8:	65 2f       	mov	r22, r21
     2da:	0e 94 36 19 	call	0x326c	; 0x326c <__udivmodqi4>
     2de:	29 2f       	mov	r18, r25
     2e0:	30 e0       	ldi	r19, 0x00	; 0
	bMdecine = tTimeEditing.bMin / 10;
     2e2:	8f 2f       	mov	r24, r31
     2e4:	0e 94 36 19 	call	0x326c	; 0x326c <__udivmodqi4>
			break;
		case 3:
			;EDIT_TIME_DATE(0,BTN_A,BTN_B,bButton, tTimeEditing.bMin, bMdecine, bMunita, 5,9)
			break;
		case 4:
			;EDIT_TIME_DATE(1,BTN_A,BTN_B,bButton, tTimeEditing.bMin, bMdecine, bMunita, 5,9)
     2e8:	42 30       	cpi	r20, 0x02	; 2
     2ea:	39 f4       	brne	.+14     	; 0x2fa <changeEditTime+0x12a>
     2ec:	29 30       	cpi	r18, 0x09	; 9
     2ee:	31 05       	cpc	r19, r1
     2f0:	09 f4       	brne	.+2      	; 0x2f4 <changeEditTime+0x124>
     2f2:	54 c0       	rjmp	.+168    	; 0x39c <changeEditTime+0x1cc>
     2f4:	2f 5f       	subi	r18, 0xFF	; 255
     2f6:	3f 4f       	sbci	r19, 0xFF	; 255
     2f8:	09 c0       	rjmp	.+18     	; 0x30c <changeEditTime+0x13c>
     2fa:	44 30       	cpi	r20, 0x04	; 4
     2fc:	09 f0       	breq	.+2      	; 0x300 <changeEditTime+0x130>
     2fe:	4e c0       	rjmp	.+156    	; 0x39c <changeEditTime+0x1cc>
     300:	21 15       	cp	r18, r1
     302:	31 05       	cpc	r19, r1
     304:	09 f4       	brne	.+2      	; 0x308 <changeEditTime+0x138>
     306:	4a c0       	rjmp	.+148    	; 0x39c <changeEditTime+0x1cc>
     308:	21 50       	subi	r18, 0x01	; 1
     30a:	30 40       	sbci	r19, 0x00	; 0
     30c:	88 0f       	add	r24, r24
     30e:	98 2f       	mov	r25, r24
     310:	99 0f       	add	r25, r25
     312:	99 0f       	add	r25, r25
     314:	98 0f       	add	r25, r24
     316:	92 0f       	add	r25, r18
     318:	90 93 a8 04 	sts	0x04A8, r25
     31c:	08 95       	ret
			break;
		case 6:
			;EDIT_TIME_DATE(0,BTN_A,BTN_B,bButton, tTimeEditing.bSec, bSdecine, bSunita, 5,9)
     31e:	62 30       	cpi	r22, 0x02	; 2
     320:	41 f4       	brne	.+16     	; 0x332 <changeEditTime+0x162>
     322:	80 91 a7 04 	lds	r24, 0x04A7
     326:	82 33       	cpi	r24, 0x32	; 50
     328:	c8 f5       	brcc	.+114    	; 0x39c <changeEditTime+0x1cc>
     32a:	80 91 a7 04 	lds	r24, 0x04A7
     32e:	86 5f       	subi	r24, 0xF6	; 246
     330:	09 c0       	rjmp	.+18     	; 0x344 <changeEditTime+0x174>
     332:	64 30       	cpi	r22, 0x04	; 4
     334:	99 f5       	brne	.+102    	; 0x39c <changeEditTime+0x1cc>
     336:	80 91 a7 04 	lds	r24, 0x04A7
     33a:	8a 30       	cpi	r24, 0x0A	; 10
     33c:	78 f1       	brcs	.+94     	; 0x39c <changeEditTime+0x1cc>
     33e:	80 91 a7 04 	lds	r24, 0x04A7
     342:	8a 50       	subi	r24, 0x0A	; 10
     344:	80 93 a7 04 	sts	0x04A7, r24
     348:	08 95       	ret
	
	bHunita = tTimeEditing.bHour % 10;
	bHdecine = tTimeEditing.bHour / 10;
	bMunita = tTimeEditing.bMin % 10;
	bMdecine = tTimeEditing.bMin / 10;
	bSunita = tTimeEditing.bSec % 10;
     34a:	5a e0       	ldi	r21, 0x0A	; 10
     34c:	82 2f       	mov	r24, r18
     34e:	65 2f       	mov	r22, r21
     350:	0e 94 36 19 	call	0x326c	; 0x326c <__udivmodqi4>
     354:	29 2f       	mov	r18, r25
     356:	30 e0       	ldi	r19, 0x00	; 0
	bSdecine = tTimeEditing.bSec / 10;
     358:	8e 2f       	mov	r24, r30
     35a:	0e 94 36 19 	call	0x326c	; 0x326c <__udivmodqi4>
			break;
		case 6:
			;EDIT_TIME_DATE(0,BTN_A,BTN_B,bButton, tTimeEditing.bSec, bSdecine, bSunita, 5,9)
			break;
		case 7:
			;EDIT_TIME_DATE(1,BTN_A,BTN_B,bButton, tTimeEditing.bSec, bSdecine, bSunita, 5,9)
     35e:	42 30       	cpi	r20, 0x02	; 2
     360:	71 f4       	brne	.+28     	; 0x37e <changeEditTime+0x1ae>
     362:	29 30       	cpi	r18, 0x09	; 9
     364:	31 05       	cpc	r19, r1
     366:	d1 f0       	breq	.+52     	; 0x39c <changeEditTime+0x1cc>
     368:	2f 5f       	subi	r18, 0xFF	; 255
     36a:	3f 4f       	sbci	r19, 0xFF	; 255
     36c:	88 0f       	add	r24, r24
     36e:	98 2f       	mov	r25, r24
     370:	99 0f       	add	r25, r25
     372:	99 0f       	add	r25, r25
     374:	98 0f       	add	r25, r24
     376:	92 0f       	add	r25, r18
     378:	90 93 a7 04 	sts	0x04A7, r25
     37c:	08 95       	ret
     37e:	44 30       	cpi	r20, 0x04	; 4
     380:	69 f4       	brne	.+26     	; 0x39c <changeEditTime+0x1cc>
     382:	21 15       	cp	r18, r1
     384:	31 05       	cpc	r19, r1
     386:	51 f0       	breq	.+20     	; 0x39c <changeEditTime+0x1cc>
     388:	21 50       	subi	r18, 0x01	; 1
     38a:	30 40       	sbci	r19, 0x00	; 0
     38c:	88 0f       	add	r24, r24
     38e:	98 2f       	mov	r25, r24
     390:	99 0f       	add	r25, r25
     392:	99 0f       	add	r25, r25
     394:	98 0f       	add	r25, r24
     396:	92 0f       	add	r25, r18
     398:	90 93 a7 04 	sts	0x04A7, r25
     39c:	08 95       	ret

0000039e <EEOpen>:
#include "24c_.h"

void EEOpen(void)
{
	//Set up TWI Module
	TWBR = 12;
     39e:	8c e0       	ldi	r24, 0x0C	; 12
     3a0:	80 93 70 00 	sts	0x0070, r24
	TWSR &= (~((1<<TWPS1)|(1<<TWPS0)));		// Prescaler = 1  ==>  F = F_CPU
     3a4:	e1 e7       	ldi	r30, 0x71	; 113
     3a6:	f0 e0       	ldi	r31, 0x00	; 0
     3a8:	80 81       	ld	r24, Z
     3aa:	8c 7f       	andi	r24, 0xFC	; 252
     3ac:	80 83       	st	Z, r24
	return;
}
     3ae:	08 95       	ret

000003b0 <EEWriteByte>:

uint8_t EEWriteByte(uint16_t address,uint8_t data)
{
	do
	{
		TWCR=(1<<TWINT)|(1<<TWSTA)|(1<<TWEN);
     3b0:	54 ea       	ldi	r21, 0xA4	; 164
		if((TWSR & 0xF8) != 0x08)
			return FALSE;

		//Now write SLA+W
		//EEPROM @ 00h
		TWDR=0b10100000;
     3b2:	40 ea       	ldi	r20, 0xA0	; 160

		//Initiate Transfer
		TWCR=(1<<TWINT)|(1<<TWEN);
     3b4:	34 e8       	ldi	r19, 0x84	; 132

uint8_t EEWriteByte(uint16_t address,uint8_t data)
{
	do
	{
		TWCR=(1<<TWINT)|(1<<TWSTA)|(1<<TWEN);
     3b6:	50 93 74 00 	sts	0x0074, r21

		while(!(TWCR & (1<<TWINT)));
     3ba:	20 91 74 00 	lds	r18, 0x0074
     3be:	27 ff       	sbrs	r18, 7
     3c0:	fc cf       	rjmp	.-8      	; 0x3ba <EEWriteByte+0xa>

		if((TWSR & 0xF8) != 0x08)
     3c2:	20 91 71 00 	lds	r18, 0x0071
     3c6:	28 7f       	andi	r18, 0xF8	; 248
     3c8:	28 30       	cpi	r18, 0x08	; 8
     3ca:	09 f0       	breq	.+2      	; 0x3ce <EEWriteByte+0x1e>
     3cc:	40 c0       	rjmp	.+128    	; 0x44e <EEWriteByte+0x9e>
			return FALSE;

		//Now write SLA+W
		//EEPROM @ 00h
		TWDR=0b10100000;
     3ce:	40 93 73 00 	sts	0x0073, r20

		//Initiate Transfer
		TWCR=(1<<TWINT)|(1<<TWEN);
     3d2:	30 93 74 00 	sts	0x0074, r19

		//Poll Till Done
		while(!(TWCR & (1<<TWINT)));
     3d6:	20 91 74 00 	lds	r18, 0x0074
     3da:	27 ff       	sbrs	r18, 7
     3dc:	fc cf       	rjmp	.-8      	; 0x3d6 <EEWriteByte+0x26>
	
	}while((TWSR & 0xF8) != 0x18);
     3de:	20 91 71 00 	lds	r18, 0x0071
     3e2:	28 7f       	andi	r18, 0xF8	; 248
     3e4:	28 31       	cpi	r18, 0x18	; 24
     3e6:	39 f7       	brne	.-50     	; 0x3b6 <EEWriteByte+0x6>

	TWDR=(address>>8);
     3e8:	90 93 73 00 	sts	0x0073, r25

	TWCR=(1<<TWINT)|(1<<TWEN);
     3ec:	94 e8       	ldi	r25, 0x84	; 132
     3ee:	90 93 74 00 	sts	0x0074, r25

	while(!(TWCR & (1<<TWINT)));
     3f2:	90 91 74 00 	lds	r25, 0x0074
     3f6:	97 ff       	sbrs	r25, 7
     3f8:	fc cf       	rjmp	.-8      	; 0x3f2 <EEWriteByte+0x42>

	if((TWSR & 0xF8) != 0x28)
     3fa:	90 91 71 00 	lds	r25, 0x0071
     3fe:	98 7f       	andi	r25, 0xF8	; 248
     400:	98 32       	cpi	r25, 0x28	; 40
     402:	29 f5       	brne	.+74     	; 0x44e <EEWriteByte+0x9e>
		return FALSE;

	TWDR=(address);
     404:	80 93 73 00 	sts	0x0073, r24

	TWCR=(1<<TWINT)|(1<<TWEN);
     408:	84 e8       	ldi	r24, 0x84	; 132
     40a:	80 93 74 00 	sts	0x0074, r24

	while(!(TWCR & (1<<TWINT)));
     40e:	80 91 74 00 	lds	r24, 0x0074
     412:	87 ff       	sbrs	r24, 7
     414:	fc cf       	rjmp	.-8      	; 0x40e <EEWriteByte+0x5e>

	if((TWSR & 0xF8) != 0x28)
     416:	80 91 71 00 	lds	r24, 0x0071
     41a:	88 7f       	andi	r24, 0xF8	; 248
     41c:	88 32       	cpi	r24, 0x28	; 40
     41e:	b9 f4       	brne	.+46     	; 0x44e <EEWriteByte+0x9e>
		return FALSE;

	TWDR=(data);
     420:	60 93 73 00 	sts	0x0073, r22

	TWCR=(1<<TWINT)|(1<<TWEN);
     424:	84 e8       	ldi	r24, 0x84	; 132
     426:	80 93 74 00 	sts	0x0074, r24

	while(!(TWCR & (1<<TWINT)));
     42a:	80 91 74 00 	lds	r24, 0x0074
     42e:	87 ff       	sbrs	r24, 7
     430:	fc cf       	rjmp	.-8      	; 0x42a <EEWriteByte+0x7a>

	if((TWSR & 0xF8) != 0x28)
     432:	80 91 71 00 	lds	r24, 0x0071
     436:	88 7f       	andi	r24, 0xF8	; 248
     438:	88 32       	cpi	r24, 0x28	; 40
     43a:	59 f4       	brne	.+22     	; 0x452 <EEWriteByte+0xa2>
		return FALSE;

	TWCR=(1<<TWINT)|(1<<TWEN)|(1<<TWSTO);
     43c:	84 e9       	ldi	r24, 0x94	; 148
     43e:	80 93 74 00 	sts	0x0074, r24

	while(TWCR & (1<<TWSTO));
     442:	80 91 74 00 	lds	r24, 0x0074
     446:	84 fd       	sbrc	r24, 4
     448:	fc cf       	rjmp	.-8      	; 0x442 <EEWriteByte+0x92>

	//_delay_ms(12);

	return TRUE;
     44a:	81 e0       	ldi	r24, 0x01	; 1
     44c:	08 95       	ret
	TWCR=(1<<TWINT)|(1<<TWEN);

	while(!(TWCR & (1<<TWINT)));

	if((TWSR & 0xF8) != 0x28)
		return FALSE;
     44e:	80 e0       	ldi	r24, 0x00	; 0
     450:	08 95       	ret
	TWCR=(1<<TWINT)|(1<<TWEN);

	while(!(TWCR & (1<<TWINT)));

	if((TWSR & 0xF8) != 0x28)
		return FALSE;
     452:	80 e0       	ldi	r24, 0x00	; 0

	//_delay_ms(12);

	return TRUE;

}
     454:	08 95       	ret

00000456 <EEReadByte>:

	//Initiate a Dummy Write Sequence to start Random Read
	do
	{
		//Put Start Condition on TWI Bus
		TWCR=(1<<TWINT)|(1<<TWSTA)|(1<<TWEN);
     456:	54 ea       	ldi	r21, 0xA4	; 164
		if((TWSR & 0xF8) != 0x08)
			return FALSE;

		//Now write SLA+W
		//EEPROM @ 00h
		TWDR=0b10100000;  // 0xa0 //EEPROM_W
     458:	40 ea       	ldi	r20, 0xA0	; 160

		//Initiate Transfer
		TWCR=(1<<TWINT)|(1<<TWEN);
     45a:	34 e8       	ldi	r19, 0x84	; 132

	//Initiate a Dummy Write Sequence to start Random Read
	do
	{
		//Put Start Condition on TWI Bus
		TWCR=(1<<TWINT)|(1<<TWSTA)|(1<<TWEN);
     45c:	50 93 74 00 	sts	0x0074, r21

		//Poll Till Done
		while(!(TWCR & (1<<TWINT)));
     460:	20 91 74 00 	lds	r18, 0x0074
     464:	27 ff       	sbrs	r18, 7
     466:	fc cf       	rjmp	.-8      	; 0x460 <EEReadByte+0xa>

		//Check status
		if((TWSR & 0xF8) != 0x08)
     468:	20 91 71 00 	lds	r18, 0x0071
     46c:	28 7f       	andi	r18, 0xF8	; 248
     46e:	28 30       	cpi	r18, 0x08	; 8
     470:	09 f0       	breq	.+2      	; 0x474 <EEReadByte+0x1e>
     472:	5b c0       	rjmp	.+182    	; 0x52a <EEReadByte+0xd4>
			return FALSE;

		//Now write SLA+W
		//EEPROM @ 00h
		TWDR=0b10100000;  // 0xa0 //EEPROM_W
     474:	40 93 73 00 	sts	0x0073, r20

		//Initiate Transfer
		TWCR=(1<<TWINT)|(1<<TWEN);
     478:	30 93 74 00 	sts	0x0074, r19

		//Poll Till Done
		while(!(TWCR & (1<<TWINT)));
     47c:	20 91 74 00 	lds	r18, 0x0074
     480:	27 ff       	sbrs	r18, 7
     482:	fc cf       	rjmp	.-8      	; 0x47c <EEReadByte+0x26>
	
	}while((TWSR & 0xF8) != 0x18);
     484:	20 91 71 00 	lds	r18, 0x0071
     488:	28 7f       	andi	r18, 0xF8	; 248
     48a:	28 31       	cpi	r18, 0x18	; 24
     48c:	39 f7       	brne	.-50     	; 0x45c <EEReadByte+0x6>
		

	//Now write ADDRH
	TWDR=(address>>8);
     48e:	90 93 73 00 	sts	0x0073, r25

	//Initiate Transfer
	TWCR=(1<<TWINT)|(1<<TWEN);
     492:	94 e8       	ldi	r25, 0x84	; 132
     494:	90 93 74 00 	sts	0x0074, r25

	//Poll Till Done
	while(!(TWCR & (1<<TWINT)));
     498:	90 91 74 00 	lds	r25, 0x0074
     49c:	97 ff       	sbrs	r25, 7
     49e:	fc cf       	rjmp	.-8      	; 0x498 <EEReadByte+0x42>

	//Check status
	if((TWSR & 0xF8) != 0x28)
     4a0:	90 91 71 00 	lds	r25, 0x0071
     4a4:	98 7f       	andi	r25, 0xF8	; 248
     4a6:	98 32       	cpi	r25, 0x28	; 40
     4a8:	09 f0       	breq	.+2      	; 0x4ac <EEReadByte+0x56>
     4aa:	3f c0       	rjmp	.+126    	; 0x52a <EEReadByte+0xd4>
		return FALSE;

	//Now write ADDRL
	TWDR=(address);
     4ac:	80 93 73 00 	sts	0x0073, r24

	//Initiate Transfer
	TWCR=(1<<TWINT)|(1<<TWEN);
     4b0:	84 e8       	ldi	r24, 0x84	; 132
     4b2:	80 93 74 00 	sts	0x0074, r24

	//Poll Till Done
	while(!(TWCR & (1<<TWINT)));
     4b6:	80 91 74 00 	lds	r24, 0x0074
     4ba:	87 ff       	sbrs	r24, 7
     4bc:	fc cf       	rjmp	.-8      	; 0x4b6 <EEReadByte+0x60>

	//Check status
	if((TWSR & 0xF8) != 0x28)
     4be:	80 91 71 00 	lds	r24, 0x0071
     4c2:	88 7f       	andi	r24, 0xF8	; 248
     4c4:	88 32       	cpi	r24, 0x28	; 40
     4c6:	89 f5       	brne	.+98     	; 0x52a <EEReadByte+0xd4>
	//*************************DUMMY WRITE SEQUENCE END **********************


	
	//Put Start Condition on TWI Bus
	TWCR=(1<<TWINT)|(1<<TWSTA)|(1<<TWEN);
     4c8:	84 ea       	ldi	r24, 0xA4	; 164
     4ca:	80 93 74 00 	sts	0x0074, r24

	//Poll Till Done
	while(!(TWCR & (1<<TWINT)));
     4ce:	80 91 74 00 	lds	r24, 0x0074
     4d2:	87 ff       	sbrs	r24, 7
     4d4:	fc cf       	rjmp	.-8      	; 0x4ce <EEReadByte+0x78>

	//Check status
	if((TWSR & 0xF8) != 0x10)
     4d6:	80 91 71 00 	lds	r24, 0x0071
     4da:	88 7f       	andi	r24, 0xF8	; 248
     4dc:	80 31       	cpi	r24, 0x10	; 16
     4de:	29 f5       	brne	.+74     	; 0x52a <EEReadByte+0xd4>
		return FALSE;

	//Now write SLA+R
	//EEPROM @ 00h
	TWDR=0b10100001;	
     4e0:	81 ea       	ldi	r24, 0xA1	; 161
     4e2:	80 93 73 00 	sts	0x0073, r24

	//Initiate Transfer
	TWCR=(1<<TWINT)|(1<<TWEN);
     4e6:	84 e8       	ldi	r24, 0x84	; 132
     4e8:	80 93 74 00 	sts	0x0074, r24

	//Poll Till Done
	while(!(TWCR & (1<<TWINT)));
     4ec:	80 91 74 00 	lds	r24, 0x0074
     4f0:	87 ff       	sbrs	r24, 7
     4f2:	fc cf       	rjmp	.-8      	; 0x4ec <EEReadByte+0x96>

	//Check status
	if((TWSR & 0xF8) != 0x40)
     4f4:	80 91 71 00 	lds	r24, 0x0071
     4f8:	88 7f       	andi	r24, 0xF8	; 248
     4fa:	80 34       	cpi	r24, 0x40	; 64
     4fc:	b1 f4       	brne	.+44     	; 0x52a <EEReadByte+0xd4>
		return FALSE;

	//Now enable Reception of data by clearing TWINT
	TWCR=(1<<TWINT)|(1<<TWEN);
     4fe:	84 e8       	ldi	r24, 0x84	; 132
     500:	80 93 74 00 	sts	0x0074, r24

	//Wait till done
	while(!(TWCR & (1<<TWINT)));
     504:	80 91 74 00 	lds	r24, 0x0074
     508:	87 ff       	sbrs	r24, 7
     50a:	fc cf       	rjmp	.-8      	; 0x504 <EEReadByte+0xae>

	//Check status
	if((TWSR & 0xF8) != 0x58)
     50c:	80 91 71 00 	lds	r24, 0x0071
     510:	88 7f       	andi	r24, 0xF8	; 248
     512:	88 35       	cpi	r24, 0x58	; 88
     514:	61 f4       	brne	.+24     	; 0x52e <EEReadByte+0xd8>
		return FALSE;

	//Read the data
	data=TWDR;
     516:	80 91 73 00 	lds	r24, 0x0073

	//Put Stop Condition on bus
	TWCR=(1<<TWINT)|(1<<TWEN)|(1<<TWSTO);
     51a:	94 e9       	ldi	r25, 0x94	; 148
     51c:	90 93 74 00 	sts	0x0074, r25
	
	//Wait for STOP to finish
	while(TWCR & (1<<TWSTO));
     520:	90 91 74 00 	lds	r25, 0x0074
     524:	94 fd       	sbrc	r25, 4
     526:	fc cf       	rjmp	.-8      	; 0x520 <EEReadByte+0xca>
     528:	08 95       	ret
	//Poll Till Done
	while(!(TWCR & (1<<TWINT)));

	//Check status
	if((TWSR & 0xF8) != 0x40)
		return FALSE;
     52a:	80 e0       	ldi	r24, 0x00	; 0
     52c:	08 95       	ret
	//Wait till done
	while(!(TWCR & (1<<TWINT)));

	//Check status
	if((TWSR & 0xF8) != 0x58)
		return FALSE;
     52e:	80 e0       	ldi	r24, 0x00	; 0
	//Wait for STOP to finish
	while(TWCR & (1<<TWSTO));

	//Return TRUE
	return data;
}
     530:	08 95       	ret

00000532 <LCDBusyLoop>:
	//This function waits till lcd is BUSY

	uint8_t busy,status=0x00,temp;

	//Change Port to input type because we are reading data
	LCD_DATA_DDR&=0xF0;
     532:	8a b3       	in	r24, 0x1a	; 26
     534:	80 7f       	andi	r24, 0xF0	; 240
     536:	8a bb       	out	0x1a, r24	; 26

	//change LCD mode
	SET_RW();		//Read mode
     538:	a8 9a       	sbi	0x15, 0	; 21
	CLEAR_RS();		//Read status
     53a:	a9 98       	cbi	0x15, 1	; 21
	#else
		//round up by default
		__ticks_dc = (uint32_t)(ceil(fabs(__tmp)));
	#endif

	__builtin_avr_delay_cycles(__ticks_dc);
     53c:	82 e0       	ldi	r24, 0x02	; 2
     53e:	8a 95       	dec	r24
     540:	f1 f7       	brne	.-4      	; 0x53e <LCDBusyLoop+0xc>
     542:	00 c0       	rjmp	.+0      	; 0x544 <LCDBusyLoop+0x12>
	_delay_us(HALF);		//tAS
	
	do
	{

		SET_E();
     544:	aa 9a       	sbi	0x15, 2	; 21
     546:	92 e0       	ldi	r25, 0x02	; 2
     548:	9a 95       	dec	r25
     54a:	f1 f7       	brne	.-4      	; 0x548 <LCDBusyLoop+0x16>
     54c:	00 c0       	rjmp	.+0      	; 0x54e <LCDBusyLoop+0x1c>

		//Wait tDA for data to become available
		_delay_us(HALF);

		status=LCD_DATA_PIN;
     54e:	89 b3       	in	r24, 0x19	; 25
		status=status<<4;
     550:	82 95       	swap	r24
     552:	80 7f       	andi	r24, 0xF0	; 240
     554:	92 e0       	ldi	r25, 0x02	; 2
     556:	9a 95       	dec	r25
     558:	f1 f7       	brne	.-4      	; 0x556 <LCDBusyLoop+0x24>
     55a:	00 c0       	rjmp	.+0      	; 0x55c <LCDBusyLoop+0x2a>

		_delay_us(HALF);

		//Pull E low
		CLEAR_E();
     55c:	aa 98       	cbi	0x15, 2	; 21
     55e:	95 e0       	ldi	r25, 0x05	; 5
     560:	9a 95       	dec	r25
     562:	f1 f7       	brne	.-4      	; 0x560 <LCDBusyLoop+0x2e>
     564:	00 00       	nop
		_delay_us(ONE);	//tEL

		SET_E();
     566:	aa 9a       	sbi	0x15, 2	; 21
     568:	92 e0       	ldi	r25, 0x02	; 2
     56a:	9a 95       	dec	r25
     56c:	f1 f7       	brne	.-4      	; 0x56a <LCDBusyLoop+0x38>
     56e:	00 c0       	rjmp	.+0      	; 0x570 <LCDBusyLoop+0x3e>
		_delay_us(HALF);

		temp=LCD_DATA_PIN;
     570:	99 b3       	in	r25, 0x19	; 25
     572:	92 e0       	ldi	r25, 0x02	; 2
     574:	9a 95       	dec	r25
     576:	f1 f7       	brne	.-4      	; 0x574 <LCDBusyLoop+0x42>
     578:	00 c0       	rjmp	.+0      	; 0x57a <LCDBusyLoop+0x48>
		status=status|temp;

		busy=status & 0b10000000;

		_delay_us(HALF);
		CLEAR_E();
     57a:	aa 98       	cbi	0x15, 2	; 21
     57c:	95 e0       	ldi	r25, 0x05	; 5
     57e:	9a 95       	dec	r25
     580:	f1 f7       	brne	.-4      	; 0x57e <LCDBusyLoop+0x4c>
     582:	00 00       	nop
		_delay_us(ONE);	//tEL
	}while(busy);
     584:	87 fd       	sbrc	r24, 7
     586:	de cf       	rjmp	.-68     	; 0x544 <LCDBusyLoop+0x12>

	CLEAR_RW();		//write mode
     588:	a8 98       	cbi	0x15, 0	; 21
	//Change Port to output
	LCD_DATA_DDR|=0x0F;
     58a:	8a b3       	in	r24, 0x1a	; 26
     58c:	8f 60       	ori	r24, 0x0F	; 15
     58e:	8a bb       	out	0x1a, r24	; 26

}
     590:	08 95       	ret

00000592 <LCDByte>:
	//NOTE: THIS FUNCTION RETURS ONLY WHEN LCD HAS PROCESSED THE COMMAND

	uint8_t hn,ln;			//Nibbles
	uint8_t temp;

	hn=c>>4;
     592:	28 2f       	mov	r18, r24
     594:	22 95       	swap	r18
     596:	2f 70       	andi	r18, 0x0F	; 15
	ln=(c & 0x0F);
     598:	8f 70       	andi	r24, 0x0F	; 15

	if(isdata==0)
     59a:	66 23       	and	r22, r22
     59c:	11 f4       	brne	.+4      	; 0x5a2 <LCDByte+0x10>
		CLEAR_RS();
     59e:	a9 98       	cbi	0x15, 1	; 21
     5a0:	01 c0       	rjmp	.+2      	; 0x5a4 <LCDByte+0x12>
	else
		SET_RS();
     5a2:	a9 9a       	sbi	0x15, 1	; 21
     5a4:	92 e0       	ldi	r25, 0x02	; 2
     5a6:	9a 95       	dec	r25
     5a8:	f1 f7       	brne	.-4      	; 0x5a6 <LCDByte+0x14>
     5aa:	00 c0       	rjmp	.+0      	; 0x5ac <LCDByte+0x1a>

	_delay_us(HALF);		//tAS

	SET_E();
     5ac:	aa 9a       	sbi	0x15, 2	; 21

	//Send high nibble

	temp=(LCD_DATA_PORT & 0XF0)|(hn);
     5ae:	9b b3       	in	r25, 0x1b	; 27
     5b0:	90 7f       	andi	r25, 0xF0	; 240
     5b2:	92 2b       	or	r25, r18
	LCD_DATA_PORT=temp;
     5b4:	9b bb       	out	0x1b, r25	; 27
     5b6:	95 e0       	ldi	r25, 0x05	; 5
     5b8:	9a 95       	dec	r25
     5ba:	f1 f7       	brne	.-4      	; 0x5b8 <LCDByte+0x26>
     5bc:	00 00       	nop

	_delay_us(ONE);			//tEH

	//Now data lines are stable pull E low for transmission

	CLEAR_E();
     5be:	aa 98       	cbi	0x15, 2	; 21
     5c0:	95 e0       	ldi	r25, 0x05	; 5
     5c2:	9a 95       	dec	r25
     5c4:	f1 f7       	brne	.-4      	; 0x5c2 <LCDByte+0x30>
     5c6:	00 00       	nop

	_delay_us(ONE);

	//Send the lower nibble
	SET_E();
     5c8:	aa 9a       	sbi	0x15, 2	; 21

	temp=(LCD_DATA_PORT & 0XF0)|(ln);
     5ca:	9b b3       	in	r25, 0x1b	; 27
     5cc:	90 7f       	andi	r25, 0xF0	; 240
     5ce:	98 2b       	or	r25, r24

	LCD_DATA_PORT=temp;
     5d0:	9b bb       	out	0x1b, r25	; 27
     5d2:	85 e0       	ldi	r24, 0x05	; 5
     5d4:	8a 95       	dec	r24
     5d6:	f1 f7       	brne	.-4      	; 0x5d4 <LCDByte+0x42>
     5d8:	00 00       	nop

	_delay_us(ONE);			//tEH

	//SEND

	CLEAR_E();
     5da:	aa 98       	cbi	0x15, 2	; 21
     5dc:	95 e0       	ldi	r25, 0x05	; 5
     5de:	9a 95       	dec	r25
     5e0:	f1 f7       	brne	.-4      	; 0x5de <LCDByte+0x4c>
     5e2:	00 00       	nop

	_delay_us(ONE);			//tEL

	LCDBusyLoop();
     5e4:	0e 94 99 02 	call	0x532	; 0x532 <LCDBusyLoop>
}
     5e8:	08 95       	ret

000005ea <InitLCD>:
	LCD_DATA_DDR|=0x0F;

}

void InitLCD(uint8_t style)
{
     5ea:	df 93       	push	r29
     5ec:	cf 93       	push	r28
     5ee:	0f 92       	push	r0
     5f0:	cd b7       	in	r28, 0x3d	; 61
     5f2:	de b7       	in	r29, 0x3e	; 62
	#else
		//round up by default
		__ticks_dc = (uint32_t)(ceil(fabs(__tmp)));
	#endif

	__builtin_avr_delay_cycles(__ticks_dc);
     5f4:	2f ef       	ldi	r18, 0xFF	; 255
     5f6:	36 e7       	ldi	r19, 0x76	; 118
     5f8:	41 e0       	ldi	r20, 0x01	; 1
     5fa:	21 50       	subi	r18, 0x01	; 1
     5fc:	30 40       	sbci	r19, 0x00	; 0
     5fe:	40 40       	sbci	r20, 0x00	; 0
     600:	e1 f7       	brne	.-8      	; 0x5fa <InitLCD+0x10>
     602:	00 c0       	rjmp	.+0      	; 0x604 <InitLCD+0x1a>
     604:	00 00       	nop
	
	//After power on Wait for LCD to Initialize
	_delay_ms(THIRTY);
	
	//Set IO Ports
	LCD_DATA_DDR|=(0x0F);
     606:	9a b3       	in	r25, 0x1a	; 26
     608:	9f 60       	ori	r25, 0x0F	; 15
     60a:	9a bb       	out	0x1a, r25	; 26
	LCD_E_DDR|=(1<<LCD_E_POS);
     60c:	a2 9a       	sbi	0x14, 2	; 20
	LCD_RS_DDR|=(1<<LCD_RS_POS);
     60e:	a1 9a       	sbi	0x14, 1	; 20
	LCD_RW_DDR|=(1<<LCD_RW_POS);
     610:	a0 9a       	sbi	0x14, 0	; 20

	LCD_DATA_PORT&=0XF0;
     612:	9b b3       	in	r25, 0x1b	; 27
     614:	90 7f       	andi	r25, 0xF0	; 240
     616:	9b bb       	out	0x1b, r25	; 27
	CLEAR_E();
     618:	aa 98       	cbi	0x15, 2	; 21
	CLEAR_RW();
     61a:	a8 98       	cbi	0x15, 0	; 21
	CLEAR_RS();
     61c:	a9 98       	cbi	0x15, 1	; 21
	#else
		//round up by default
		__ticks_dc = (uint32_t)(ceil(fabs(__tmp)));
	#endif

	__builtin_avr_delay_cycles(__ticks_dc);
     61e:	00 c0       	rjmp	.+0      	; 0x620 <InitLCD+0x36>
     620:	00 c0       	rjmp	.+0      	; 0x622 <InitLCD+0x38>
     622:	00 00       	nop

	//Set 4-bit mode
	_delay_us(DOT_THREE);	//tAS

	SET_E();
     624:	aa 9a       	sbi	0x15, 2	; 21
	LCD_DATA_PORT|=(0b00000010); //[B] To transfer 0b00100000 i was using LCD_DATA_PORT|=0b00100000
     626:	d9 9a       	sbi	0x1b, 1	; 27
     628:	35 e0       	ldi	r19, 0x05	; 5
     62a:	3a 95       	dec	r19
     62c:	f1 f7       	brne	.-4      	; 0x62a <InitLCD+0x40>
     62e:	00 00       	nop
	_delay_us(ONE);
	CLEAR_E();
     630:	aa 98       	cbi	0x15, 2	; 21
     632:	45 e0       	ldi	r20, 0x05	; 5
     634:	4a 95       	dec	r20
     636:	f1 f7       	brne	.-4      	; 0x634 <InitLCD+0x4a>
     638:	00 00       	nop
	_delay_us(ONE);
	
	//Wait for LCD to execute the Functionset Command
	LCDBusyLoop();                                    //[B] Forgot this delay
     63a:	89 83       	std	Y+1, r24	; 0x01
     63c:	0e 94 99 02 	call	0x532	; 0x532 <LCDBusyLoop>

	//Now the LCD is in 4-bit mode

	LCDCmd(0b00001100|style);	//Display On
     640:	89 81       	ldd	r24, Y+1	; 0x01
     642:	8c 60       	ori	r24, 0x0C	; 12
     644:	60 e0       	ldi	r22, 0x00	; 0
     646:	0e 94 c9 02 	call	0x592	; 0x592 <LCDByte>
	LCDCmd(0b00101000);			//function set 4-bit,2 line 5x7 dot format
     64a:	88 e2       	ldi	r24, 0x28	; 40
     64c:	60 e0       	ldi	r22, 0x00	; 0
     64e:	0e 94 c9 02 	call	0x592	; 0x592 <LCDByte>
}
     652:	0f 90       	pop	r0
     654:	cf 91       	pop	r28
     656:	df 91       	pop	r29
     658:	08 95       	ret

0000065a <LCDWriteString>:
void LCDWriteString(const char *msg)
{
     65a:	ef 92       	push	r14
     65c:	ff 92       	push	r15
     65e:	cf 93       	push	r28
     660:	df 93       	push	r29
     662:	e8 2e       	mov	r14, r24
     664:	e7 01       	movw	r28, r14
     666:	7e 01       	movw	r14, r28
     668:	f9 2e       	mov	r15, r25
     66a:	e7 01       	movw	r28, r14
	Arguments:
	msg: a null terminated string to print


	*****************************************************************/
 while(*msg!='\0')
     66c:	03 c0       	rjmp	.+6      	; 0x674 <LCDWriteString+0x1a>
 {
	LCDData(*msg);
     66e:	61 e0       	ldi	r22, 0x01	; 1
     670:	0e 94 c9 02 	call	0x592	; 0x592 <LCDByte>
	Arguments:
	msg: a null terminated string to print


	*****************************************************************/
 while(*msg!='\0')
     674:	89 91       	ld	r24, Y+
     676:	88 23       	and	r24, r24
     678:	d1 f7       	brne	.-12     	; 0x66e <LCDWriteString+0x14>
 {
	LCDData(*msg);
	msg++;
 }
}
     67a:	df 91       	pop	r29
     67c:	cf 91       	pop	r28
     67e:	ff 90       	pop	r15
     680:	ef 90       	pop	r14
     682:	08 95       	ret

00000684 <LCDWriteInt>:

void LCDWriteInt(int val,unsigned int field_length)
{
     684:	ef 92       	push	r14
     686:	ff 92       	push	r15
     688:	0f 93       	push	r16
     68a:	1f 93       	push	r17
     68c:	df 93       	push	r29
     68e:	cf 93       	push	r28
     690:	00 d0       	rcall	.+0      	; 0x692 <LCDWriteInt+0xe>
     692:	00 d0       	rcall	.+0      	; 0x694 <LCDWriteInt+0x10>
     694:	0f 92       	push	r0
     696:	cd b7       	in	r28, 0x3d	; 61
     698:	de b7       	in	r29, 0x3e	; 62
     69a:	9b 01       	movw	r18, r22
	2)unsigned int field_length :total length of field in which the value is printed
	must be between 1-5 if it is -1 the field length is no of digits in the val

	****************************************************************/

	char str[5]={0,0,0,0,0};
     69c:	fe 01       	movw	r30, r28
     69e:	31 96       	adiw	r30, 0x01	; 1
     6a0:	45 e0       	ldi	r20, 0x05	; 5
     6a2:	df 01       	movw	r26, r30
     6a4:	1d 92       	st	X+, r1
     6a6:	4a 95       	dec	r20
     6a8:	e9 f7       	brne	.-6      	; 0x6a4 <LCDWriteInt+0x20>
     6aa:	fe 01       	movw	r30, r28
     6ac:	36 96       	adiw	r30, 0x06	; 6
	int i=4,j=0;
	while(val)
	{
	str[i]=val%10;
     6ae:	0a e0       	ldi	r16, 0x0A	; 10
     6b0:	10 e0       	ldi	r17, 0x00	; 0

	****************************************************************/

	char str[5]={0,0,0,0,0};
	int i=4,j=0;
	while(val)
     6b2:	05 c0       	rjmp	.+10     	; 0x6be <LCDWriteInt+0x3a>
	{
	str[i]=val%10;
     6b4:	b8 01       	movw	r22, r16
     6b6:	0e 94 56 19 	call	0x32ac	; 0x32ac <__divmodhi4>
     6ba:	82 93       	st	-Z, r24
	val=val/10;
     6bc:	cb 01       	movw	r24, r22

	****************************************************************/

	char str[5]={0,0,0,0,0};
	int i=4,j=0;
	while(val)
     6be:	00 97       	sbiw	r24, 0x00	; 0
     6c0:	c9 f7       	brne	.-14     	; 0x6b4 <LCDWriteInt+0x30>
	{
	str[i]=val%10;
	val=val/10;
	i--;
	}
	if(field_length==-1)
     6c2:	bf ef       	ldi	r27, 0xFF	; 255
     6c4:	2f 3f       	cpi	r18, 0xFF	; 255
     6c6:	3b 07       	cpc	r19, r27
     6c8:	51 f4       	brne	.+20     	; 0x6de <LCDWriteInt+0x5a>
     6ca:	fe 01       	movw	r30, r28
     6cc:	31 96       	adiw	r30, 0x01	; 1
     6ce:	80 e0       	ldi	r24, 0x00	; 0
     6d0:	90 e0       	ldi	r25, 0x00	; 0
     6d2:	01 c0       	rjmp	.+2      	; 0x6d6 <LCDWriteInt+0x52>
		while(str[j]==0) j++;
     6d4:	01 96       	adiw	r24, 0x01	; 1
     6d6:	21 91       	ld	r18, Z+
     6d8:	22 23       	and	r18, r18
     6da:	e1 f3       	breq	.-8      	; 0x6d4 <LCDWriteInt+0x50>
     6dc:	04 c0       	rjmp	.+8      	; 0x6e6 <LCDWriteInt+0x62>
	else
		j=5-field_length;
     6de:	85 e0       	ldi	r24, 0x05	; 5
     6e0:	90 e0       	ldi	r25, 0x00	; 0
     6e2:	82 1b       	sub	r24, r18
     6e4:	93 0b       	sbc	r25, r19
	LCDData(*msg);
	msg++;
 }
}

void LCDWriteInt(int val,unsigned int field_length)
     6e6:	8e 01       	movw	r16, r28
     6e8:	0f 5f       	subi	r16, 0xFF	; 255
     6ea:	1f 4f       	sbci	r17, 0xFF	; 255
     6ec:	08 0f       	add	r16, r24
     6ee:	19 1f       	adc	r17, r25
     6f0:	7c 01       	movw	r14, r24
     6f2:	0a c0       	rjmp	.+20     	; 0x708 <LCDWriteInt+0x84>
		j=5-field_length;

	if(val<0) LCDData('-');
	for(i=j;i<5;i++)
	{
	LCDData(48+str[i]);
     6f4:	f8 01       	movw	r30, r16
     6f6:	81 91       	ld	r24, Z+
     6f8:	8f 01       	movw	r16, r30
     6fa:	80 5d       	subi	r24, 0xD0	; 208
     6fc:	61 e0       	ldi	r22, 0x01	; 1
     6fe:	0e 94 c9 02 	call	0x592	; 0x592 <LCDByte>
		while(str[j]==0) j++;
	else
		j=5-field_length;

	if(val<0) LCDData('-');
	for(i=j;i<5;i++)
     702:	08 94       	sec
     704:	e1 1c       	adc	r14, r1
     706:	f1 1c       	adc	r15, r1
     708:	f5 e0       	ldi	r31, 0x05	; 5
     70a:	ef 16       	cp	r14, r31
     70c:	f1 04       	cpc	r15, r1
     70e:	94 f3       	brlt	.-28     	; 0x6f4 <LCDWriteInt+0x70>
	{
	LCDData(48+str[i]);
	}
}
     710:	0f 90       	pop	r0
     712:	0f 90       	pop	r0
     714:	0f 90       	pop	r0
     716:	0f 90       	pop	r0
     718:	0f 90       	pop	r0
     71a:	cf 91       	pop	r28
     71c:	df 91       	pop	r29
     71e:	1f 91       	pop	r17
     720:	0f 91       	pop	r16
     722:	ff 90       	pop	r15
     724:	ef 90       	pop	r14
     726:	08 95       	ret

00000728 <LCDGotoXY>:
void LCDGotoXY(uint8_t x,uint8_t y)
{
 if(x<40)
     728:	88 32       	cpi	r24, 0x28	; 40
     72a:	30 f4       	brcc	.+12     	; 0x738 <LCDGotoXY+0x10>
 {
  if(y) x|=0b01000000;
     72c:	61 11       	cpse	r22, r1
     72e:	80 64       	ori	r24, 0x40	; 64
  x|=0b10000000;
  LCDCmd(x);
     730:	80 68       	ori	r24, 0x80	; 128
     732:	60 e0       	ldi	r22, 0x00	; 0
     734:	0e 94 c9 02 	call	0x592	; 0x592 <LCDByte>
     738:	08 95       	ret

0000073a <LCDWriteStringXY>:
  }
}

void LCDWriteStringXY(uint8_t x, uint8_t y, const char *msg){
     73a:	cf 93       	push	r28
     73c:	df 93       	push	r29
     73e:	ea 01       	movw	r28, r20
	LCDGotoXY(x, y);
     740:	0e 94 94 03 	call	0x728	; 0x728 <LCDGotoXY>
	LCDWriteString(msg);
     744:	ce 01       	movw	r24, r28
     746:	0e 94 2d 03 	call	0x65a	; 0x65a <LCDWriteString>
}
     74a:	df 91       	pop	r29
     74c:	cf 91       	pop	r28
     74e:	08 95       	ret

00000750 <EEPROM_Open>:


uint8_t EEPROM_Open()
{

	TWSR = 0;
     750:	10 92 71 00 	sts	0x0071, r1
	TWBR = ((F_CPU / TWI_BITRATE) - 16) / 2;
     754:	8c e0       	ldi	r24, 0x0C	; 12
     756:	80 93 70 00 	sts	0x0070, r24
	if (TWBR < 11)
     75a:	90 91 70 00 	lds	r25, 0x0070
		return 0;
     75e:	81 e0       	ldi	r24, 0x01	; 1
     760:	9b 30       	cpi	r25, 0x0B	; 11
     762:	08 f4       	brcc	.+2      	; 0x766 <EEPROM_Open+0x16>
     764:	80 e0       	ldi	r24, 0x00	; 0
	return 1;
}
     766:	08 95       	ret

00000768 <i2c_start>:
#include "i2c.h"


unsigned char i2c_start(void)
{
	TWCR = (1<<TWINT)|(1<<TWSTA)|(1<<TWEN);		//Send START condition
     768:	84 ea       	ldi	r24, 0xA4	; 164
     76a:	80 93 74 00 	sts	0x0074, r24
	
	while (!(TWCR & (1<<TWINT)));   		//Wait for TWINT flag set. This indicates that the
     76e:	80 91 74 00 	lds	r24, 0x0074
     772:	87 ff       	sbrs	r24, 7
     774:	fc cf       	rjmp	.-8      	; 0x76e <i2c_start+0x6>
											//START condition has been transmitted
	
	if (((TWSR & 0xF8) == START) || ((TWSR & 0xF8) == REPEAT_START))
     776:	80 91 71 00 	lds	r24, 0x0071
     77a:	88 7f       	andi	r24, 0xF8	; 248
     77c:	88 30       	cpi	r24, 0x08	; 8
     77e:	41 f0       	breq	.+16     	; 0x790 <i2c_start+0x28>
     780:	90 91 71 00 	lds	r25, 0x0071
     784:	98 7f       	andi	r25, 0xF8	; 248
		return 0;
     786:	81 e0       	ldi	r24, 0x01	; 1
     788:	90 31       	cpi	r25, 0x10	; 16
     78a:	19 f4       	brne	.+6      	; 0x792 <i2c_start+0x2a>
     78c:	80 e0       	ldi	r24, 0x00	; 0
     78e:	08 95       	ret
     790:	80 e0       	ldi	r24, 0x00	; 0
	else
		return 1;
}
     792:	08 95       	ret

00000794 <i2c_start_address>:

unsigned char i2c_start_address(unsigned char address)
{
	uint8_t twst;
	
	TWCR = (1<<TWINT)|(1<<TWSTA)|(1<<TWEN);		// Prepare and send START condition
     794:	94 ea       	ldi	r25, 0xA4	; 164
     796:	90 93 74 00 	sts	0x0074, r25
	
	while (!(TWCR & (1<<TWINT)));   		//Wait for TWINT flag set. This indicates that the
     79a:	90 91 74 00 	lds	r25, 0x0074
     79e:	97 ff       	sbrs	r25, 7
     7a0:	fc cf       	rjmp	.-8      	; 0x79a <i2c_start_address+0x6>
											//START condition has been transmitted
	twst = TWSR & 0xF8;
     7a2:	90 91 71 00 	lds	r25, 0x0071
     7a6:	98 7f       	andi	r25, 0xF8	; 248
	
	if ((twst != START) && (twst != REPEAT_START))
     7a8:	98 30       	cpi	r25, 0x08	; 8
     7aa:	11 f0       	breq	.+4      	; 0x7b0 <i2c_start_address+0x1c>
     7ac:	90 31       	cpi	r25, 0x10	; 16
     7ae:	91 f4       	brne	.+36     	; 0x7d4 <i2c_start_address+0x40>
		return 2;
	
	TWDR = address;
     7b0:	80 93 73 00 	sts	0x0073, r24
	TWCR = (1<<TWINT)|(1<<TWEN);
     7b4:	84 e8       	ldi	r24, 0x84	; 132
     7b6:	80 93 74 00 	sts	0x0074, r24
	
	while(!(TWCR & (1<<TWINT)));
     7ba:	80 91 74 00 	lds	r24, 0x0074
     7be:	87 ff       	sbrs	r24, 7
     7c0:	fc cf       	rjmp	.-8      	; 0x7ba <i2c_start_address+0x26>
	
	//twst = TW_STATUS & 0xF8;
	twst = TWSR;
     7c2:	90 91 71 00 	lds	r25, 0x0071
	
	if ( (twst != MT_SLA_ACK) && (twst != MR_SLA_ACK) )
     7c6:	98 31       	cpi	r25, 0x18	; 24
     7c8:	39 f0       	breq	.+14     	; 0x7d8 <i2c_start_address+0x44>
		return 0;
	else
		return 1;
}

unsigned char i2c_start_address(unsigned char address)
     7ca:	81 e0       	ldi	r24, 0x01	; 1
     7cc:	90 34       	cpi	r25, 0x40	; 64
     7ce:	29 f4       	brne	.+10     	; 0x7da <i2c_start_address+0x46>
     7d0:	80 e0       	ldi	r24, 0x00	; 0
     7d2:	08 95       	ret
	while (!(TWCR & (1<<TWINT)));   		//Wait for TWINT flag set. This indicates that the
											//START condition has been transmitted
	twst = TWSR & 0xF8;
	
	if ((twst != START) && (twst != REPEAT_START))
		return 2;
     7d4:	82 e0       	ldi	r24, 0x02	; 2
     7d6:	08 95       	ret
	twst = TWSR;
	
	if ( (twst != MT_SLA_ACK) && (twst != MR_SLA_ACK) )
		return 1;
	
	return 0;
     7d8:	80 e0       	ldi	r24, 0x00	; 0
}
     7da:	08 95       	ret

000007dc <i2c_repeatStart>:

unsigned char i2c_repeatStart(void)
{
 
	TWCR = (1<<TWINT)|(1<<TWSTA)|(1<<TWEN); 		//Send START condition
     7dc:	84 ea       	ldi	r24, 0xA4	; 164
     7de:	80 93 74 00 	sts	0x0074, r24
    
	while (!(TWCR & (1<<TWINT)));
     7e2:	80 91 74 00 	lds	r24, 0x0074
     7e6:	87 ff       	sbrs	r24, 7
     7e8:	fc cf       	rjmp	.-8      	; 0x7e2 <i2c_repeatStart+0x6>
	
	if ((TWSR & 0xF8) == REPEAT_START)
     7ea:	90 91 71 00 	lds	r25, 0x0071
     7ee:	98 7f       	andi	r25, 0xF8	; 248
		return(0);
     7f0:	81 e0       	ldi	r24, 0x01	; 1
     7f2:	90 31       	cpi	r25, 0x10	; 16
     7f4:	09 f4       	brne	.+2      	; 0x7f8 <i2c_repeatStart+0x1c>
     7f6:	80 e0       	ldi	r24, 0x00	; 0
	else
		return(1);
}
     7f8:	08 95       	ret

000007fa <i2c_sendAddress_ACK>:

unsigned char i2c_sendAddress_ACK(unsigned char address)	// lsb of ADDRESS is R/W bit || R/W =1 --> Read operation!
{
	unsigned char STATUS;
   
	if((address & 0x01) == 0)		// == EEPROM_W
     7fa:	80 ff       	sbrs	r24, 0
     7fc:	02 c0       	rjmp	.+4      	; 0x802 <i2c_sendAddress_ACK+0x8>
		STATUS = MT_SLA_ACK;		// Write (master transmit)
	else
		STATUS = MR_SLA_ACK; 		// Read (master receive)
     7fe:	40 e4       	ldi	r20, 0x40	; 64
     800:	01 c0       	rjmp	.+2      	; 0x804 <i2c_sendAddress_ACK+0xa>
unsigned char i2c_sendAddress_ACK(unsigned char address)	// lsb of ADDRESS is R/W bit || R/W =1 --> Read operation!
{
	unsigned char STATUS;
   
	if((address & 0x01) == 0)		// == EEPROM_W
		STATUS = MT_SLA_ACK;		// Write (master transmit)
     802:	48 e1       	ldi	r20, 0x18	; 24
	else
		STATUS = MR_SLA_ACK; 		// Read (master receive)
   
	TWDR = address;						//Load SLA_W/SLA_R into TWDR Register. Clear TWINT bit
     804:	80 93 73 00 	sts	0x0073, r24
	TWCR = (1<<TWINT)|(1<<TWEN);
     808:	84 e8       	ldi	r24, 0x84	; 132
     80a:	80 93 74 00 	sts	0x0074, r24
	TWCR |= (1<<TWEA);		//in TWCR to start transmission of address
     80e:	80 91 74 00 	lds	r24, 0x0074
     812:	80 64       	ori	r24, 0x40	; 64
     814:	80 93 74 00 	sts	0x0074, r24

	while (!(TWCR & (1<<TWINT)));		//Wait for TWINT flag set. This indicates that the
     818:	80 91 74 00 	lds	r24, 0x0074
     81c:	87 ff       	sbrs	r24, 7
     81e:	fc cf       	rjmp	.-8      	; 0x818 <i2c_sendAddress_ACK+0x1e>
										//SLA+W has been transmitted, and ACK/NACK has been received.
	//return TWSR;
	if ((TWSR & 0xF8) == STATUS)
     820:	20 91 71 00 	lds	r18, 0x0071
     824:	30 e0       	ldi	r19, 0x00	; 0
     826:	28 7f       	andi	r18, 0xF8	; 248
     828:	30 70       	andi	r19, 0x00	; 0
     82a:	50 e0       	ldi	r21, 0x00	; 0
		return(0);
     82c:	81 e0       	ldi	r24, 0x01	; 1
     82e:	24 17       	cp	r18, r20
     830:	35 07       	cpc	r19, r21
     832:	09 f4       	brne	.+2      	; 0x836 <i2c_sendAddress_ACK+0x3c>
     834:	80 e0       	ldi	r24, 0x00	; 0
	else 
		return(1);
}
     836:	08 95       	ret

00000838 <i2c_sendAddress_NACK>:

unsigned char i2c_sendAddress_NACK(unsigned char address)	// lsb of ADDRESS is R/W bit || R/W =1 --> Read operation!
{
	unsigned char STATUS;
   
	if((address & 0x01) == 0)		// == EEPROM_W
     838:	80 ff       	sbrs	r24, 0
     83a:	02 c0       	rjmp	.+4      	; 0x840 <i2c_sendAddress_NACK+0x8>
		STATUS = MT_SLA_NACK;		// Write (master transmit)
	else
		STATUS = MR_SLA_NACK; 		// Read (master receive)
     83c:	48 e4       	ldi	r20, 0x48	; 72
     83e:	01 c0       	rjmp	.+2      	; 0x842 <i2c_sendAddress_NACK+0xa>
unsigned char i2c_sendAddress_NACK(unsigned char address)	// lsb of ADDRESS is R/W bit || R/W =1 --> Read operation!
{
	unsigned char STATUS;
   
	if((address & 0x01) == 0)		// == EEPROM_W
		STATUS = MT_SLA_NACK;		// Write (master transmit)
     840:	40 e2       	ldi	r20, 0x20	; 32
	else
		STATUS = MR_SLA_NACK; 		// Read (master receive)
   
	TWDR = address;					//Load SLA_W/SLA_R into TWDR Register. Clear TWINT bit
     842:	80 93 73 00 	sts	0x0073, r24
	TWCR = (1<<TWINT)|(1<<TWEN);		//in TWCR to start transmission of address
     846:	84 e8       	ldi	r24, 0x84	; 132
     848:	80 93 74 00 	sts	0x0074, r24

	while (!(TWCR & (1<<TWINT)));		//Wait for TWINT flag set. This indicates that the
     84c:	80 91 74 00 	lds	r24, 0x0074
     850:	87 ff       	sbrs	r24, 7
     852:	fc cf       	rjmp	.-8      	; 0x84c <i2c_sendAddress_NACK+0x14>
										//SLA+W has been transmitted, and ACK/NACK has been received.
	//return TWSR;
	if ((TWSR & 0xF8) == STATUS)
     854:	20 91 71 00 	lds	r18, 0x0071
     858:	30 e0       	ldi	r19, 0x00	; 0
     85a:	28 7f       	andi	r18, 0xF8	; 248
     85c:	30 70       	andi	r19, 0x00	; 0
     85e:	50 e0       	ldi	r21, 0x00	; 0
		return(0);
     860:	81 e0       	ldi	r24, 0x01	; 1
     862:	24 17       	cp	r18, r20
     864:	35 07       	cpc	r19, r21
     866:	09 f4       	brne	.+2      	; 0x86a <i2c_sendAddress_NACK+0x32>
     868:	80 e0       	ldi	r24, 0x00	; 0
	else 
		return(1);
}
     86a:	08 95       	ret

0000086c <i2c_sendData_ACK>:

unsigned char i2c_sendData_ACK(unsigned char data)
{
	TWDR = data; 
     86c:	80 93 73 00 	sts	0x0073, r24
	TWCR = (1<<TWINT)|(1<<TWEN)|(1<<TWEA);
     870:	84 ec       	ldi	r24, 0xC4	; 196
     872:	80 93 74 00 	sts	0x0074, r24
	
	while (!(TWCR & (1<<TWINT)));
     876:	80 91 74 00 	lds	r24, 0x0074
     87a:	87 ff       	sbrs	r24, 7
     87c:	fc cf       	rjmp	.-8      	; 0x876 <i2c_sendData_ACK+0xa>
	
	if ((TWSR & 0xF8) == MT_DATA_ACK)
     87e:	90 91 71 00 	lds	r25, 0x0071
     882:	98 7f       	andi	r25, 0xF8	; 248
		return(0);
     884:	81 e0       	ldi	r24, 0x01	; 1
     886:	98 32       	cpi	r25, 0x28	; 40
     888:	09 f4       	brne	.+2      	; 0x88c <i2c_sendData_ACK+0x20>
     88a:	80 e0       	ldi	r24, 0x00	; 0
	else
		return(1);
}
     88c:	08 95       	ret

0000088e <i2c_sendData_NACK>:
unsigned char i2c_sendData_NACK(unsigned char data)
{
	TWDR = data; 
     88e:	80 93 73 00 	sts	0x0073, r24
	TWCR = (1<<TWINT)|(1<<TWEN);
     892:	84 e8       	ldi	r24, 0x84	; 132
     894:	80 93 74 00 	sts	0x0074, r24
	
	while (!(TWCR & (1<<TWINT)));
     898:	80 91 74 00 	lds	r24, 0x0074
     89c:	87 ff       	sbrs	r24, 7
     89e:	fc cf       	rjmp	.-8      	; 0x898 <i2c_sendData_NACK+0xa>
	
	if ((TWSR & 0xF8) == MT_DATA_NACK)
     8a0:	90 91 71 00 	lds	r25, 0x0071
     8a4:	98 7f       	andi	r25, 0xF8	; 248
		return(0);
     8a6:	81 e0       	ldi	r24, 0x01	; 1
     8a8:	90 33       	cpi	r25, 0x30	; 48
     8aa:	09 f4       	brne	.+2      	; 0x8ae <i2c_sendData_NACK+0x20>
     8ac:	80 e0       	ldi	r24, 0x00	; 0
	else
		return(1);
}
     8ae:	08 95       	ret

000008b0 <i2c_receiveData_ACK>:

unsigned char i2c_receiveData_ACK(void)
{
	unsigned char data;
  
	TWCR = (1<<TWEA)|(1<<TWINT)|(1<<TWEN);	// Enable ACKnowledge
     8b0:	84 ec       	ldi	r24, 0xC4	; 196
     8b2:	80 93 74 00 	sts	0x0074, r24
  
	while (!(TWCR & (1<<TWINT)));
     8b6:	80 91 74 00 	lds	r24, 0x0074
     8ba:	87 ff       	sbrs	r24, 7
     8bc:	fc cf       	rjmp	.-8      	; 0x8b6 <i2c_receiveData_ACK+0x6>
	
	if ((TWSR & 0xF8) != MR_DATA_ACK)
     8be:	80 91 71 00 	lds	r24, 0x0071
     8c2:	88 7f       	andi	r24, 0xF8	; 248
     8c4:	80 35       	cpi	r24, 0x50	; 80
     8c6:	19 f4       	brne	.+6      	; 0x8ce <i2c_receiveData_ACK+0x1e>
		return(ERROR_CODE);
  
	data = TWDR;
     8c8:	80 91 73 00 	lds	r24, 0x0073
	return(data);
     8cc:	08 95       	ret
	TWCR = (1<<TWEA)|(1<<TWINT)|(1<<TWEN);	// Enable ACKnowledge
  
	while (!(TWCR & (1<<TWINT)));
	
	if ((TWSR & 0xF8) != MR_DATA_ACK)
		return(ERROR_CODE);
     8ce:	8e e7       	ldi	r24, 0x7E	; 126
  
	data = TWDR;
	return(data);
}
     8d0:	08 95       	ret

000008d2 <i2c_receiveData_NACK>:

unsigned char i2c_receiveData_NACK(void)
{
	unsigned char data;
  
	TWCR = (1<<TWINT)|(1<<TWEN);
     8d2:	84 e8       	ldi	r24, 0x84	; 132
     8d4:	80 93 74 00 	sts	0x0074, r24
  
	while (!(TWCR & (1<<TWINT)));
     8d8:	80 91 74 00 	lds	r24, 0x0074
     8dc:	87 ff       	sbrs	r24, 7
     8de:	fc cf       	rjmp	.-8      	; 0x8d8 <i2c_receiveData_NACK+0x6>
	
	if ((TWSR & 0xF8) != MR_DATA_NACK)
     8e0:	80 91 71 00 	lds	r24, 0x0071
     8e4:	88 7f       	andi	r24, 0xF8	; 248
     8e6:	88 35       	cpi	r24, 0x58	; 88
     8e8:	19 f4       	brne	.+6      	; 0x8f0 <i2c_receiveData_NACK+0x1e>
		return(ERROR_CODE);
  
	data = TWDR;
     8ea:	80 91 73 00 	lds	r24, 0x0073
	return(data);
     8ee:	08 95       	ret
	TWCR = (1<<TWINT)|(1<<TWEN);
  
	while (!(TWCR & (1<<TWINT)));
	
	if ((TWSR & 0xF8) != MR_DATA_NACK)
		return(ERROR_CODE);
     8f0:	8e e7       	ldi	r24, 0x7E	; 126
  
	data = TWDR;
	return(data);
}
     8f2:	08 95       	ret

000008f4 <i2c_stop>:
	return(TWDR);
}*/
 	
void i2c_stop(void)
{
	TWCR =  (1<<TWINT)|(1<<TWEN)|(1<<TWSTO);	  //Transmit STOP condition
     8f4:	84 e9       	ldi	r24, 0x94	; 148
     8f6:	80 93 74 00 	sts	0x0074, r24
	while(TWCR & (1<<TWSTO));
     8fa:	80 91 74 00 	lds	r24, 0x0074
     8fe:	84 fd       	sbrc	r24, 4
     900:	fc cf       	rjmp	.-8      	; 0x8fa <i2c_stop+0x6>
}  
     902:	08 95       	ret

00000904 <EEPROM_erase>:
	}
	return 0;
}


unsigned char EEPROM_erase(void){
     904:	1f 93       	push	r17
     906:	cf 93       	push	r28
     908:	df 93       	push	r29
  
	unsigned char errorStatus;
	unsigned int i;
	
	errorStatus = i2c_start_address(SLA_W);
     90a:	80 ea       	ldi	r24, 0xA0	; 160
     90c:	0e 94 ca 03 	call	0x794	; 0x794 <i2c_start_address>
     910:	18 2f       	mov	r17, r24
	errorStatus |= i2c_sendData_ACK(0x00);
     912:	80 e0       	ldi	r24, 0x00	; 0
     914:	0e 94 36 04 	call	0x86c	; 0x86c <i2c_sendData_ACK>
     918:	18 2b       	or	r17, r24
	errorStatus |= i2c_sendData_ACK(0x00);
     91a:	80 e0       	ldi	r24, 0x00	; 0
     91c:	0e 94 36 04 	call	0x86c	; 0x86c <i2c_sendData_ACK>
     920:	81 2b       	or	r24, r17
	if(errorStatus == 1){
     922:	81 30       	cpi	r24, 0x01	; 1
     924:	41 f0       	breq	.+16     	; 0x936 <EEPROM_erase+0x32>
     926:	c0 e0       	ldi	r28, 0x00	; 0
     928:	d0 e0       	ldi	r29, 0x00	; 0
     92a:	0a c0       	rjmp	.+20     	; 0x940 <EEPROM_erase+0x3c>
		i2c_stop();
		return(1);
	} 
	
	for(i=0;i<0x8000;i++){
		errorStatus = i2c_sendData_ACK(0xff);
     92c:	8f ef       	ldi	r24, 0xFF	; 255
     92e:	0e 94 36 04 	call	0x86c	; 0x86c <i2c_sendData_ACK>
		if(errorStatus == 1){
     932:	81 30       	cpi	r24, 0x01	; 1
     934:	21 f4       	brne	.+8      	; 0x93e <EEPROM_erase+0x3a>
			i2c_stop();
     936:	0e 94 7a 04 	call	0x8f4	; 0x8f4 <i2c_stop>
			return(1);
     93a:	81 e0       	ldi	r24, 0x01	; 1
     93c:	06 c0       	rjmp	.+12     	; 0x94a <EEPROM_erase+0x46>
	if(errorStatus == 1){
		i2c_stop();
		return(1);
	} 
	
	for(i=0;i<0x8000;i++){
     93e:	21 96       	adiw	r28, 0x01	; 1
     940:	d7 ff       	sbrs	r29, 7
     942:	f4 cf       	rjmp	.-24     	; 0x92c <EEPROM_erase+0x28>
			i2c_stop();
			return(1);
		}
	}
	
	i2c_stop();
     944:	0e 94 7a 04 	call	0x8f4	; 0x8f4 <i2c_stop>
	
	return(0);
     948:	80 e0       	ldi	r24, 0x00	; 0
}
     94a:	df 91       	pop	r29
     94c:	cf 91       	pop	r28
     94e:	1f 91       	pop	r17
     950:	08 95       	ret

00000952 <EEPROM_sequentialRead>:
	
	return(0);  
} 


unsigned char EEPROM_sequentialRead(uint16_t address, uint16_t numOfBytes, unsigned char * dest, unsigned char ACK){
     952:	cf 92       	push	r12
     954:	df 92       	push	r13
     956:	ef 92       	push	r14
     958:	ff 92       	push	r15
     95a:	0f 93       	push	r16
     95c:	1f 93       	push	r17
     95e:	df 93       	push	r29
     960:	cf 93       	push	r28
     962:	00 d0       	rcall	.+0      	; 0x964 <EEPROM_sequentialRead+0x12>
     964:	cd b7       	in	r28, 0x3d	; 61
     966:	de b7       	in	r29, 0x3e	; 62
     968:	08 2f       	mov	r16, r24
     96a:	6b 01       	movw	r12, r22
     96c:	f4 2e       	mov	r15, r20
     96e:	e2 2e       	mov	r14, r18
	
	unsigned char errorStatus, i;
	uint8_t highAddress=(address>>8), lowAddress=(address);
	
	errorStatus = i2c_start();
     970:	5a 83       	std	Y+2, r21	; 0x02
     972:	99 83       	std	Y+1, r25	; 0x01
     974:	0e 94 b4 03 	call	0x768	; 0x768 <i2c_start>
     978:	18 2f       	mov	r17, r24
	#else
		//round up by default
		__ticks_dc = (uint32_t)(ceil(fabs(__tmp)));
	#endif

	__builtin_avr_delay_cycles(__ticks_dc);
     97a:	ef ed       	ldi	r30, 0xDF	; 223
     97c:	fe e2       	ldi	r31, 0x2E	; 46
     97e:	31 97       	sbiw	r30, 0x01	; 1
     980:	f1 f7       	brne	.-4      	; 0x97e <EEPROM_sequentialRead+0x2c>
     982:	00 c0       	rjmp	.+0      	; 0x984 <EEPROM_sequentialRead+0x32>
     984:	00 00       	nop
	_delay_ms(3);
	errorStatus |= i2c_sendAddress_ACK(SLA_W);
     986:	80 ea       	ldi	r24, 0xA0	; 160
     988:	0e 94 fd 03 	call	0x7fa	; 0x7fa <i2c_sendAddress_ACK>
     98c:	18 2b       	or	r17, r24
	errorStatus |= i2c_sendData_ACK(highAddress);
     98e:	99 81       	ldd	r25, Y+1	; 0x01
     990:	89 2f       	mov	r24, r25
     992:	0e 94 36 04 	call	0x86c	; 0x86c <i2c_sendData_ACK>
     996:	18 2b       	or	r17, r24
	errorStatus |= i2c_sendData_ACK(lowAddress);
     998:	80 2f       	mov	r24, r16
     99a:	0e 94 36 04 	call	0x86c	; 0x86c <i2c_sendData_ACK>
     99e:	18 2b       	or	r17, r24
	errorStatus |= i2c_repeatStart();
     9a0:	0e 94 ee 03 	call	0x7dc	; 0x7dc <i2c_repeatStart>
     9a4:	18 2b       	or	r17, r24
	errorStatus |= i2c_sendAddress_ACK(SLA_R);
     9a6:	81 ea       	ldi	r24, 0xA1	; 161
     9a8:	0e 94 fd 03 	call	0x7fa	; 0x7fa <i2c_sendAddress_ACK>
     9ac:	18 2b       	or	r17, r24
	
	if(errorStatus){
     9ae:	5a 81       	ldd	r21, Y+2	; 0x02
     9b0:	11 23       	and	r17, r17
     9b2:	b1 f0       	breq	.+44     	; 0x9e0 <EEPROM_sequentialRead+0x8e>
		i2c_stop();
     9b4:	0e 94 7a 04 	call	0x8f4	; 0x8f4 <i2c_stop>
		return errorStatus;
     9b8:	1e c0       	rjmp	.+60     	; 0x9f6 <EEPROM_sequentialRead+0xa4>
	}
	
	for(i=0;i<numOfBytes;i++){
		if(ACK)
     9ba:	ee 20       	and	r14, r14
     9bc:	19 f0       	breq	.+6      	; 0x9c4 <EEPROM_sequentialRead+0x72>
			*dest = i2c_receiveData_ACK();
     9be:	0e 94 58 04 	call	0x8b0	; 0x8b0 <i2c_receiveData_ACK>
     9c2:	02 c0       	rjmp	.+4      	; 0x9c8 <EEPROM_sequentialRead+0x76>
		else
			*dest = i2c_receiveData_NACK();
     9c4:	0e 94 69 04 	call	0x8d2	; 0x8d2 <i2c_receiveData_NACK>
     9c8:	f8 01       	movw	r30, r16
     9ca:	80 83       	st	Z, r24
		
		if(*(++dest) == ERROR_CODE){
     9cc:	0f 5f       	subi	r16, 0xFF	; 255
     9ce:	1f 4f       	sbci	r17, 0xFF	; 255
     9d0:	f8 01       	movw	r30, r16
     9d2:	80 81       	ld	r24, Z
     9d4:	8e 37       	cpi	r24, 0x7E	; 126
     9d6:	31 f4       	brne	.+12     	; 0x9e4 <EEPROM_sequentialRead+0x92>
			i2c_stop();
     9d8:	0e 94 7a 04 	call	0x8f4	; 0x8f4 <i2c_stop>
	   		return(ERROR_CODE);
     9dc:	1e e7       	ldi	r17, 0x7E	; 126
     9de:	0b c0       	rjmp	.+22     	; 0x9f6 <EEPROM_sequentialRead+0xa4>
	errorStatus |= i2c_sendData_ACK(highAddress);
	errorStatus |= i2c_sendData_ACK(lowAddress);
	errorStatus |= i2c_repeatStart();
	errorStatus |= i2c_sendAddress_ACK(SLA_R);
	
	if(errorStatus){
     9e0:	0f 2d       	mov	r16, r15
     9e2:	15 2f       	mov	r17, r21
		i2c_stop();
		return errorStatus;
	}
	
	for(i=0;i<numOfBytes;i++){
     9e4:	80 2f       	mov	r24, r16
     9e6:	8f 19       	sub	r24, r15
     9e8:	90 e0       	ldi	r25, 0x00	; 0
     9ea:	8c 15       	cp	r24, r12
     9ec:	9d 05       	cpc	r25, r13
     9ee:	28 f3       	brcs	.-54     	; 0x9ba <EEPROM_sequentialRead+0x68>
		if(*(++dest) == ERROR_CODE){
			i2c_stop();
	   		return(ERROR_CODE);
		}
	}	
	i2c_stop();
     9f0:	0e 94 7a 04 	call	0x8f4	; 0x8f4 <i2c_stop>
	
	return numOfBytes;
     9f4:	1c 2d       	mov	r17, r12
}
     9f6:	81 2f       	mov	r24, r17
     9f8:	0f 90       	pop	r0
     9fa:	0f 90       	pop	r0
     9fc:	cf 91       	pop	r28
     9fe:	df 91       	pop	r29
     a00:	1f 91       	pop	r17
     a02:	0f 91       	pop	r16
     a04:	ff 90       	pop	r15
     a06:	ef 90       	pop	r14
     a08:	df 90       	pop	r13
     a0a:	cf 90       	pop	r12
     a0c:	08 95       	ret

00000a0e <EEPROM_readPage>:
	unsigned char *values;
	unsigned int pageAddress, numOfRead;
	
	pageAddress = pageNumber * EEPROM_PAGESIZE;	// 128 = page size
	
	numOfRead = EEPROM_sequentialRead(pageAddress, EEPROM_PAGESIZE, values, AT24_RR_ACK);
     a0e:	96 95       	lsr	r25
     a10:	98 2f       	mov	r25, r24
     a12:	88 27       	eor	r24, r24
     a14:	97 95       	ror	r25
     a16:	87 95       	ror	r24
     a18:	60 e8       	ldi	r22, 0x80	; 128
     a1a:	70 e0       	ldi	r23, 0x00	; 0
     a1c:	40 e0       	ldi	r20, 0x00	; 0
     a1e:	50 e0       	ldi	r21, 0x00	; 0
     a20:	20 e0       	ldi	r18, 0x00	; 0
     a22:	0e 94 a9 04 	call	0x952	; 0x952 <EEPROM_sequentialRead>
	if(values==NULL){ return NULL; }
	else return values;
 } 
     a26:	80 e0       	ldi	r24, 0x00	; 0
     a28:	90 e0       	ldi	r25, 0x00	; 0
     a2a:	08 95       	ret

00000a2c <EEPROM_writeByte>:
	i2c_stop();
	return data;
}


unsigned char EEPROM_writeByte(uint16_t address, uint8_t data, unsigned char ACK){
     a2c:	0f 93       	push	r16
     a2e:	1f 93       	push	r17
     a30:	df 93       	push	r29
     a32:	cf 93       	push	r28
     a34:	00 d0       	rcall	.+0      	; 0xa36 <EEPROM_writeByte+0xa>
     a36:	0f 92       	push	r0
     a38:	cd b7       	in	r28, 0x3d	; 61
     a3a:	de b7       	in	r29, 0x3e	; 62
     a3c:	18 2f       	mov	r17, r24
	
	unsigned char errorStatus, highAddress, lowAddress;
	highAddress=address>>8;
	lowAddress=address;
	
	errorStatus = i2c_start_address(SLA_W);		// busy waiting
     a3e:	80 ea       	ldi	r24, 0xA0	; 160
     a40:	4b 83       	std	Y+3, r20	; 0x03
     a42:	6a 83       	std	Y+2, r22	; 0x02
     a44:	99 83       	std	Y+1, r25	; 0x01
     a46:	0e 94 ca 03 	call	0x794	; 0x794 <i2c_start_address>
     a4a:	08 2f       	mov	r16, r24
	errorStatus |= i2c_sendData_ACK(highAddress);
     a4c:	99 81       	ldd	r25, Y+1	; 0x01
     a4e:	89 2f       	mov	r24, r25
     a50:	0e 94 36 04 	call	0x86c	; 0x86c <i2c_sendData_ACK>
     a54:	08 2b       	or	r16, r24
	errorStatus |= i2c_sendData_ACK(lowAddress);
     a56:	81 2f       	mov	r24, r17
     a58:	0e 94 36 04 	call	0x86c	; 0x86c <i2c_sendData_ACK>
     a5c:	80 2b       	or	r24, r16
	
	if(errorStatus == 1){
     a5e:	4b 81       	ldd	r20, Y+3	; 0x03
     a60:	6a 81       	ldd	r22, Y+2	; 0x02
     a62:	81 30       	cpi	r24, 0x01	; 1
     a64:	59 f0       	breq	.+22     	; 0xa7c <EEPROM_writeByte+0x50>
		i2c_stop();
		return(1);
	}
	if(ACK)
     a66:	44 23       	and	r20, r20
     a68:	21 f0       	breq	.+8      	; 0xa72 <EEPROM_writeByte+0x46>
		errorStatus = i2c_sendData_ACK(data);
     a6a:	86 2f       	mov	r24, r22
     a6c:	0e 94 36 04 	call	0x86c	; 0x86c <i2c_sendData_ACK>
     a70:	03 c0       	rjmp	.+6      	; 0xa78 <EEPROM_writeByte+0x4c>
	else
		errorStatus = i2c_sendData_NACK(data);
     a72:	86 2f       	mov	r24, r22
     a74:	0e 94 47 04 	call	0x88e	; 0x88e <i2c_sendData_NACK>
	
	if(errorStatus == 1){
     a78:	81 30       	cpi	r24, 0x01	; 1
     a7a:	21 f4       	brne	.+8      	; 0xa84 <EEPROM_writeByte+0x58>
		i2c_stop();
     a7c:	0e 94 7a 04 	call	0x8f4	; 0x8f4 <i2c_stop>
	   	return(1);
     a80:	81 e0       	ldi	r24, 0x01	; 1
     a82:	09 c0       	rjmp	.+18     	; 0xa96 <EEPROM_writeByte+0x6a>
	}
	
	i2c_stop();
     a84:	0e 94 7a 04 	call	0x8f4	; 0x8f4 <i2c_stop>
     a88:	8f e1       	ldi	r24, 0x1F	; 31
     a8a:	9e e4       	ldi	r25, 0x4E	; 78
     a8c:	01 97       	sbiw	r24, 0x01	; 1
     a8e:	f1 f7       	brne	.-4      	; 0xa8c <EEPROM_writeByte+0x60>
     a90:	00 c0       	rjmp	.+0      	; 0xa92 <EEPROM_writeByte+0x66>
     a92:	00 00       	nop
	_delay_ms(5);
	return(0);
     a94:	80 e0       	ldi	r24, 0x00	; 0
	// Dovremmo aspettare qualche ms affinch la scrittura venga terminata:
	// invece, la funzione i2c_start() verr usata in "busy waiting" : while(!i2c_start()) {}
	
}
     a96:	0f 90       	pop	r0
     a98:	0f 90       	pop	r0
     a9a:	0f 90       	pop	r0
     a9c:	cf 91       	pop	r28
     a9e:	df 91       	pop	r29
     aa0:	1f 91       	pop	r17
     aa2:	0f 91       	pop	r16
     aa4:	08 95       	ret

00000aa6 <EEPROM_sequentialWrite>:
	
	return numOfBytes;
}


unsigned char EEPROM_sequentialWrite(uint16_t address, uint16_t numOfBytes, unsigned char * data){
     aa6:	df 92       	push	r13
     aa8:	ef 92       	push	r14
     aaa:	ff 92       	push	r15
     aac:	0f 93       	push	r16
     aae:	1f 93       	push	r17
     ab0:	cf 93       	push	r28
     ab2:	df 93       	push	r29
     ab4:	7c 01       	movw	r14, r24
     ab6:	8b 01       	movw	r16, r22
     ab8:	ea 01       	movw	r28, r20
	unsigned char errorStatus, i;
	
	for(i=0;i<numOfBytes;i++){
     aba:	dd 24       	eor	r13, r13
     abc:	0e c0       	rjmp	.+28     	; 0xada <EEPROM_sequentialWrite+0x34>
		errorStatus=EEPROM_writeByte(address,data[i], AT24_BW_ACK);
     abe:	ec 0f       	add	r30, r28
     ac0:	fd 1f       	adc	r31, r29
     ac2:	c7 01       	movw	r24, r14
     ac4:	60 81       	ld	r22, Z
     ac6:	41 e0       	ldi	r20, 0x01	; 1
     ac8:	0e 94 16 05 	call	0xa2c	; 0xa2c <EEPROM_writeByte>
		if(errorStatus){
     acc:	88 23       	and	r24, r24
     ace:	21 f0       	breq	.+8      	; 0xad8 <EEPROM_sequentialWrite+0x32>
			i2c_stop();
     ad0:	0e 94 7a 04 	call	0x8f4	; 0x8f4 <i2c_stop>
			return 1;
     ad4:	81 e0       	ldi	r24, 0x01	; 1
     ad6:	07 c0       	rjmp	.+14     	; 0xae6 <EEPROM_sequentialWrite+0x40>


unsigned char EEPROM_sequentialWrite(uint16_t address, uint16_t numOfBytes, unsigned char * data){
	unsigned char errorStatus, i;
	
	for(i=0;i<numOfBytes;i++){
     ad8:	d3 94       	inc	r13
     ada:	ed 2d       	mov	r30, r13
     adc:	f0 e0       	ldi	r31, 0x00	; 0
     ade:	e0 17       	cp	r30, r16
     ae0:	f1 07       	cpc	r31, r17
     ae2:	68 f3       	brcs	.-38     	; 0xabe <EEPROM_sequentialWrite+0x18>
		if(errorStatus){
			i2c_stop();
			return 1;
		}
	}
	return 0;
     ae4:	80 e0       	ldi	r24, 0x00	; 0
}
     ae6:	df 91       	pop	r29
     ae8:	cf 91       	pop	r28
     aea:	1f 91       	pop	r17
     aec:	0f 91       	pop	r16
     aee:	ff 90       	pop	r15
     af0:	ef 90       	pop	r14
     af2:	df 90       	pop	r13
     af4:	08 95       	ret

00000af6 <EEPROM_writePage>:
	if(values==NULL){ return NULL; }
	else return values;
 } 
  

unsigned char EEPROM_writePage( unsigned int pageNumber, unsigned char * data ){
     af6:	ef 92       	push	r14
     af8:	ff 92       	push	r15
     afa:	0f 93       	push	r16
     afc:	1f 93       	push	r17
     afe:	df 93       	push	r29
     b00:	cf 93       	push	r28
     b02:	0f 92       	push	r0
     b04:	cd b7       	in	r28, 0x3d	; 61
     b06:	de b7       	in	r29, 0x3e	; 62
     b08:	7b 01       	movw	r14, r22
	
	unsigned char highAddress, lowAddress, errorStatus, i;
	unsigned int pageAddress;
	
	
	pageAddress = pageNumber * EEPROM_PAGESIZE;
     b0a:	8c 01       	movw	r16, r24
     b0c:	16 95       	lsr	r17
     b0e:	10 2f       	mov	r17, r16
     b10:	00 27       	eor	r16, r16
     b12:	17 95       	ror	r17
     b14:	07 95       	ror	r16
	for(i=0;i<EEPROM_PAGESIZE;i++){
     b16:	20 e0       	ldi	r18, 0x00	; 0
		errorStatus = EEPROM_writeByte(pageAddress, data[i], AT24_BW_ACK);
     b18:	f7 01       	movw	r30, r14
     b1a:	e2 0f       	add	r30, r18
     b1c:	f1 1d       	adc	r31, r1
     b1e:	c8 01       	movw	r24, r16
     b20:	60 81       	ld	r22, Z
     b22:	41 e0       	ldi	r20, 0x01	; 1
     b24:	29 83       	std	Y+1, r18	; 0x01
     b26:	0e 94 16 05 	call	0xa2c	; 0xa2c <EEPROM_writeByte>
		if(errorStatus){
     b2a:	29 81       	ldd	r18, Y+1	; 0x01
     b2c:	88 23       	and	r24, r24
     b2e:	21 f0       	breq	.+8      	; 0xb38 <EEPROM_writePage+0x42>
			i2c_stop();
     b30:	0e 94 7a 04 	call	0x8f4	; 0x8f4 <i2c_stop>
			return 1;
     b34:	81 e0       	ldi	r24, 0x01	; 1
     b36:	04 c0       	rjmp	.+8      	; 0xb40 <EEPROM_writePage+0x4a>
	unsigned char highAddress, lowAddress, errorStatus, i;
	unsigned int pageAddress;
	
	
	pageAddress = pageNumber * EEPROM_PAGESIZE;
	for(i=0;i<EEPROM_PAGESIZE;i++){
     b38:	2f 5f       	subi	r18, 0xFF	; 255
     b3a:	20 38       	cpi	r18, 0x80	; 128
     b3c:	69 f7       	brne	.-38     	; 0xb18 <EEPROM_writePage+0x22>
			return 1;
		}
	}
	
	
	return(0);  
     b3e:	80 e0       	ldi	r24, 0x00	; 0
} 
     b40:	0f 90       	pop	r0
     b42:	cf 91       	pop	r28
     b44:	df 91       	pop	r29
     b46:	1f 91       	pop	r17
     b48:	0f 91       	pop	r16
     b4a:	ff 90       	pop	r15
     b4c:	ef 90       	pop	r14
     b4e:	08 95       	ret

00000b50 <EEPROM_readByte>:
	return 1;
}



unsigned char EEPROM_readByte(uint16_t address, unsigned char ACK){
     b50:	ff 92       	push	r15
     b52:	0f 93       	push	r16
     b54:	1f 93       	push	r17
     b56:	df 93       	push	r29
     b58:	cf 93       	push	r28
     b5a:	0f 92       	push	r0
     b5c:	cd b7       	in	r28, 0x3d	; 61
     b5e:	de b7       	in	r29, 0x3e	; 62
     b60:	18 2f       	mov	r17, r24
     b62:	f6 2e       	mov	r15, r22
	unsigned char errorStatus, i, data;
	uint8_t highAddress, lowAddress;
	highAddress=(address>>8);
	lowAddress=(address);
	
	if((i2c_start_address(SLA_W))!=0){
     b64:	80 ea       	ldi	r24, 0xA0	; 160
     b66:	99 83       	std	Y+1, r25	; 0x01
     b68:	0e 94 ca 03 	call	0x794	; 0x794 <i2c_start_address>
     b6c:	99 81       	ldd	r25, Y+1	; 0x01
     b6e:	88 23       	and	r24, r24
     b70:	d1 f4       	brne	.+52     	; 0xba6 <EEPROM_readByte+0x56>
		i2c_stop();
		return ERROR_CODE-1; // returns 125 if encounters an error
	}
	errorStatus |= i2c_sendData_ACK(highAddress);
     b72:	89 2f       	mov	r24, r25
     b74:	0e 94 36 04 	call	0x86c	; 0x86c <i2c_sendData_ACK>
     b78:	08 2f       	mov	r16, r24
	errorStatus |= i2c_sendData_ACK(lowAddress);
     b7a:	81 2f       	mov	r24, r17
     b7c:	0e 94 36 04 	call	0x86c	; 0x86c <i2c_sendData_ACK>
     b80:	08 2b       	or	r16, r24
	
	errorStatus |= i2c_repeatStart();
     b82:	0e 94 ee 03 	call	0x7dc	; 0x7dc <i2c_repeatStart>
     b86:	08 2b       	or	r16, r24
	
	errorStatus |= i2c_sendAddress_ACK(SLA_R);
     b88:	81 ea       	ldi	r24, 0xA1	; 161
     b8a:	0e 94 fd 03 	call	0x7fa	; 0x7fa <i2c_sendAddress_ACK>
     b8e:	80 2b       	or	r24, r16
	
	if(errorStatus==1){
     b90:	81 30       	cpi	r24, 0x01	; 1
     b92:	49 f0       	breq	.+18     	; 0xba6 <EEPROM_readByte+0x56>
		i2c_stop();
		return ERROR_CODE-1;
	}
	
	if(ACK)
     b94:	ff 20       	and	r15, r15
     b96:	19 f0       	breq	.+6      	; 0xb9e <EEPROM_readByte+0x4e>
		data = i2c_receiveData_ACK();
     b98:	0e 94 58 04 	call	0x8b0	; 0x8b0 <i2c_receiveData_ACK>
     b9c:	02 c0       	rjmp	.+4      	; 0xba2 <EEPROM_readByte+0x52>
	else
		data = i2c_receiveData_NACK();
     b9e:	0e 94 69 04 	call	0x8d2	; 0x8d2 <i2c_receiveData_NACK>
	
	if(data == ERROR_CODE){
     ba2:	8e 37       	cpi	r24, 0x7E	; 126
     ba4:	21 f4       	brne	.+8      	; 0xbae <EEPROM_readByte+0x5e>
		i2c_stop();
     ba6:	0e 94 7a 04 	call	0x8f4	; 0x8f4 <i2c_stop>
	   	return ERROR_CODE-1;
     baa:	8d e7       	ldi	r24, 0x7D	; 125
     bac:	04 c0       	rjmp	.+8      	; 0xbb6 <EEPROM_readByte+0x66>
	}
	i2c_stop();
     bae:	89 83       	std	Y+1, r24	; 0x01
     bb0:	0e 94 7a 04 	call	0x8f4	; 0x8f4 <i2c_stop>
     bb4:	89 81       	ldd	r24, Y+1	; 0x01
	return data;
}
     bb6:	0f 90       	pop	r0
     bb8:	cf 91       	pop	r28
     bba:	df 91       	pop	r29
     bbc:	1f 91       	pop	r17
     bbe:	0f 91       	pop	r16
     bc0:	ff 90       	pop	r15
     bc2:	08 95       	ret

00000bc4 <__vector_15>:
/*******************************   Interrupts   *************************************/
/************************************************************************************/


/****************************  RealTimeClock Interrupt ******************************/
ISR(TIMER0_COMP_vect){
     bc4:	1f 92       	push	r1
     bc6:	0f 92       	push	r0
     bc8:	0f b6       	in	r0, 0x3f	; 63
     bca:	0f 92       	push	r0
     bcc:	0b b6       	in	r0, 0x3b	; 59
     bce:	0f 92       	push	r0
     bd0:	11 24       	eor	r1, r1
     bd2:	2f 93       	push	r18
     bd4:	3f 93       	push	r19
     bd6:	8f 93       	push	r24
     bd8:	9f 93       	push	r25
     bda:	ef 93       	push	r30
     bdc:	ff 93       	push	r31
	if(bPriLev<PRI_TIMER0)	return;
     bde:	80 91 fe 02 	lds	r24, 0x02FE
     be2:	88 23       	and	r24, r24
     be4:	09 f4       	brne	.+2      	; 0xbe8 <__vector_15+0x24>
     be6:	38 c1       	rjmp	.+624    	; 0xe58 <__vector_15+0x294>
	byte bOldPriLev = bPriLev;
     be8:	20 91 fe 02 	lds	r18, 0x02FE
	bPriLev=PRI_TIMER0;
     bec:	31 e0       	ldi	r19, 0x01	; 1
     bee:	30 93 fe 02 	sts	0x02FE, r19
	
/*	*************** FILTERS **************	*/
	bPort = BUTTON_PINS;
     bf2:	81 b1       	in	r24, 0x01	; 1
     bf4:	80 93 b0 04 	sts	0x04B0, r24
	bBtnAPressed = bPort & BIT5;		// UP
     bf8:	80 91 b0 04 	lds	r24, 0x04B0
     bfc:	80 72       	andi	r24, 0x20	; 32
     bfe:	80 93 af 04 	sts	0x04AF, r24
	bBtnBPressed = bPort & BIT7;		// DOWN
     c02:	80 91 b0 04 	lds	r24, 0x04B0
     c06:	80 78       	andi	r24, 0x80	; 128
     c08:	80 93 f0 02 	sts	0x02F0, r24
	bBtnCPressed = bPort & BIT6;		// MENU
     c0c:	80 91 b0 04 	lds	r24, 0x04B0
     c10:	80 74       	andi	r24, 0x40	; 64
     c12:	80 93 ba 04 	sts	0x04BA, r24
	// bBtnXPressed=0  -->button X pressed! connected to ground
	
	if(!bBtnCPressed&&(!bInhibite)){ //btnC is pressed
     c16:	80 91 ba 04 	lds	r24, 0x04BA
     c1a:	88 23       	and	r24, r24
     c1c:	b9 f4       	brne	.+46     	; 0xc4c <__vector_15+0x88>
     c1e:	80 91 b9 04 	lds	r24, 0x04B9
     c22:	88 23       	and	r24, r24
     c24:	99 f4       	brne	.+38     	; 0xc4c <__vector_15+0x88>
		cButtonIntegrator.wC++;
     c26:	80 91 6e 02 	lds	r24, 0x026E
     c2a:	90 91 6f 02 	lds	r25, 0x026F
     c2e:	01 96       	adiw	r24, 0x01	; 1
     c30:	90 93 6f 02 	sts	0x026F, r25
     c34:	80 93 6e 02 	sts	0x026E, r24
		if(cButtonIntegrator.wC>LONG_PRESSION_TIME){ bInhibite=1; }  // inhibites the btnC counter whenever entered in the menu
     c38:	80 91 6e 02 	lds	r24, 0x026E
     c3c:	90 91 6f 02 	lds	r25, 0x026F
     c40:	85 36       	cpi	r24, 0x65	; 101
     c42:	91 05       	cpc	r25, r1
     c44:	b8 f1       	brcs	.+110    	; 0xcb4 <__vector_15+0xf0>
     c46:	30 93 b9 04 	sts	0x04B9, r19
     c4a:	34 c0       	rjmp	.+104    	; 0xcb4 <__vector_15+0xf0>
	}
	else{
		if(bBtnCPressed!=0){ bInhibite=0; } //btnC is not pressed
     c4c:	80 91 ba 04 	lds	r24, 0x04BA
     c50:	88 23       	and	r24, r24
     c52:	11 f0       	breq	.+4      	; 0xc58 <__vector_15+0x94>
     c54:	10 92 b9 04 	sts	0x04B9, r1
		
		if(cButtonIntegrator.wC<DEBOUNCE_TIME){
     c58:	80 91 6e 02 	lds	r24, 0x026E
     c5c:	90 91 6f 02 	lds	r25, 0x026F
     c60:	8f 30       	cpi	r24, 0x0F	; 15
     c62:	91 05       	cpc	r25, r1
     c64:	28 f4       	brcc	.+10     	; 0xc70 <__vector_15+0xac>
			cButtonIntegrator.wC=0;
     c66:	10 92 6f 02 	sts	0x026F, r1
     c6a:	10 92 6e 02 	sts	0x026E, r1
     c6e:	22 c0       	rjmp	.+68     	; 0xcb4 <__vector_15+0xf0>
		}else if((cButtonIntegrator.wC>DEBOUNCE_TIME)&&(cButtonIntegrator.wC<LONG_PRESSION_TIME)){
     c70:	80 91 6e 02 	lds	r24, 0x026E
     c74:	90 91 6f 02 	lds	r25, 0x026F
     c78:	80 31       	cpi	r24, 0x10	; 16
     c7a:	91 05       	cpc	r25, r1
     c7c:	68 f0       	brcs	.+26     	; 0xc98 <__vector_15+0xd4>
     c7e:	80 91 6e 02 	lds	r24, 0x026E
     c82:	90 91 6f 02 	lds	r25, 0x026F
     c86:	84 36       	cpi	r24, 0x64	; 100
     c88:	91 05       	cpc	r25, r1
     c8a:	30 f4       	brcc	.+12     	; 0xc98 <__vector_15+0xd4>
			cButtonIntegrator.wC=0;
     c8c:	10 92 6f 02 	sts	0x026F, r1
     c90:	10 92 6e 02 	sts	0x026E, r1
			bBtn = BTN_C;
     c94:	86 e0       	ldi	r24, 0x06	; 6
     c96:	0c c0       	rjmp	.+24     	; 0xcb0 <__vector_15+0xec>
		}else if(cButtonIntegrator.wC>LONG_PRESSION_TIME){
     c98:	80 91 6e 02 	lds	r24, 0x026E
     c9c:	90 91 6f 02 	lds	r25, 0x026F
     ca0:	85 36       	cpi	r24, 0x65	; 101
     ca2:	91 05       	cpc	r25, r1
     ca4:	38 f0       	brcs	.+14     	; 0xcb4 <__vector_15+0xf0>
			cButtonIntegrator.wC=0;
     ca6:	10 92 6f 02 	sts	0x026F, r1
     caa:	10 92 6e 02 	sts	0x026E, r1
			bBtn = BTN_C_LONG;
     cae:	87 e0       	ldi	r24, 0x07	; 7
     cb0:	80 93 c3 04 	sts	0x04C3, r24
		}
	}
	if(!bBtnAPressed){ cButtonIntegrator.wA++; }
     cb4:	80 91 af 04 	lds	r24, 0x04AF
     cb8:	88 23       	and	r24, r24
     cba:	51 f4       	brne	.+20     	; 0xcd0 <__vector_15+0x10c>
     cbc:	80 91 6a 02 	lds	r24, 0x026A
     cc0:	90 91 6b 02 	lds	r25, 0x026B
     cc4:	01 96       	adiw	r24, 0x01	; 1
     cc6:	90 93 6b 02 	sts	0x026B, r25
     cca:	80 93 6a 02 	sts	0x026A, r24
     cce:	0e c0       	rjmp	.+28     	; 0xcec <__vector_15+0x128>
	else{
		if(cButtonIntegrator.wA<DEBOUNCE_TIME){ cButtonIntegrator.wA=0; }
     cd0:	80 91 6a 02 	lds	r24, 0x026A
     cd4:	90 91 6b 02 	lds	r25, 0x026B
     cd8:	8f 30       	cpi	r24, 0x0F	; 15
     cda:	91 05       	cpc	r25, r1
     cdc:	18 f0       	brcs	.+6      	; 0xce4 <__vector_15+0x120>
		else{
			bBtn = BTN_A;
     cde:	82 e0       	ldi	r24, 0x02	; 2
     ce0:	80 93 c3 04 	sts	0x04C3, r24
			cButtonIntegrator.wA=0;
     ce4:	10 92 6b 02 	sts	0x026B, r1
     ce8:	10 92 6a 02 	sts	0x026A, r1
		}
	}
	if(!bBtnBPressed){ cButtonIntegrator.wB++; }
     cec:	80 91 f0 02 	lds	r24, 0x02F0
     cf0:	88 23       	and	r24, r24
     cf2:	51 f4       	brne	.+20     	; 0xd08 <__vector_15+0x144>
     cf4:	80 91 6c 02 	lds	r24, 0x026C
     cf8:	90 91 6d 02 	lds	r25, 0x026D
     cfc:	01 96       	adiw	r24, 0x01	; 1
     cfe:	90 93 6d 02 	sts	0x026D, r25
     d02:	80 93 6c 02 	sts	0x026C, r24
     d06:	0e c0       	rjmp	.+28     	; 0xd24 <__vector_15+0x160>
	else{
		if(cButtonIntegrator.wB<DEBOUNCE_TIME){ cButtonIntegrator.wB=0; }
     d08:	80 91 6c 02 	lds	r24, 0x026C
     d0c:	90 91 6d 02 	lds	r25, 0x026D
     d10:	8f 30       	cpi	r24, 0x0F	; 15
     d12:	91 05       	cpc	r25, r1
     d14:	18 f0       	brcs	.+6      	; 0xd1c <__vector_15+0x158>
		else{
			bBtn = BTN_B;
     d16:	84 e0       	ldi	r24, 0x04	; 4
     d18:	80 93 c3 04 	sts	0x04C3, r24
			cButtonIntegrator.wB=0;
     d1c:	10 92 6d 02 	sts	0x026D, r1
     d20:	10 92 6c 02 	sts	0x026C, r1
		}
	}
	if((!bBtnAPressed)&&(!bBtnBPressed)){ cButtonIntegrator.wAB++; }
     d24:	80 91 af 04 	lds	r24, 0x04AF
     d28:	88 23       	and	r24, r24
     d2a:	71 f4       	brne	.+28     	; 0xd48 <__vector_15+0x184>
     d2c:	80 91 f0 02 	lds	r24, 0x02F0
     d30:	88 23       	and	r24, r24
     d32:	51 f4       	brne	.+20     	; 0xd48 <__vector_15+0x184>
     d34:	80 91 70 02 	lds	r24, 0x0270
     d38:	90 91 71 02 	lds	r25, 0x0271
     d3c:	01 96       	adiw	r24, 0x01	; 1
     d3e:	90 93 71 02 	sts	0x0271, r25
     d42:	80 93 70 02 	sts	0x0270, r24
     d46:	0e c0       	rjmp	.+28     	; 0xd64 <__vector_15+0x1a0>
	else{
		if(cButtonIntegrator.wAB<DEBOUNCE_TIME){ cButtonIntegrator.wAB=0; }
     d48:	80 91 70 02 	lds	r24, 0x0270
     d4c:	90 91 71 02 	lds	r25, 0x0271
     d50:	8f 30       	cpi	r24, 0x0F	; 15
     d52:	91 05       	cpc	r25, r1
     d54:	18 f0       	brcs	.+6      	; 0xd5c <__vector_15+0x198>
		else{
			bBtn = BTN_AB;
     d56:	88 e0       	ldi	r24, 0x08	; 8
     d58:	80 93 c3 04 	sts	0x04C3, r24
			cButtonIntegrator.wAB=0;
     d5c:	10 92 71 02 	sts	0x0271, r1
     d60:	10 92 70 02 	sts	0x0270, r1
	}
	
	
/* ******************************* RTC ******************************** */	
	
	if(tTime.wMilli<99) tTime.wMilli++;
     d64:	80 91 f5 02 	lds	r24, 0x02F5
     d68:	90 91 f6 02 	lds	r25, 0x02F6
     d6c:	83 36       	cpi	r24, 0x63	; 99
     d6e:	91 05       	cpc	r25, r1
     d70:	50 f4       	brcc	.+20     	; 0xd86 <__vector_15+0x1c2>
     d72:	80 91 f5 02 	lds	r24, 0x02F5
     d76:	90 91 f6 02 	lds	r25, 0x02F6
     d7a:	01 96       	adiw	r24, 0x01	; 1
     d7c:	90 93 f6 02 	sts	0x02F6, r25
     d80:	80 93 f5 02 	sts	0x02F5, r24
     d84:	5f c0       	rjmp	.+190    	; 0xe44 <__vector_15+0x280>
	else{
		tTime.wMilli=0;
     d86:	10 92 f6 02 	sts	0x02F6, r1
     d8a:	10 92 f5 02 	sts	0x02F5, r1
		if(tTime.bSec<59){ tTime.bSec++; bTimeColonToToggle=1; } // time colon is flashing at 1 Hz
     d8e:	80 91 f7 02 	lds	r24, 0x02F7
     d92:	8b 33       	cpi	r24, 0x3B	; 59
     d94:	48 f4       	brcc	.+18     	; 0xda8 <__vector_15+0x1e4>
     d96:	80 91 f7 02 	lds	r24, 0x02F7
     d9a:	8f 5f       	subi	r24, 0xFF	; 255
     d9c:	80 93 f7 02 	sts	0x02F7, r24
     da0:	81 e0       	ldi	r24, 0x01	; 1
     da2:	80 93 ef 02 	sts	0x02EF, r24
     da6:	4e c0       	rjmp	.+156    	; 0xe44 <__vector_15+0x280>
		else{
			tTime.bSec=0;
     da8:	10 92 f7 02 	sts	0x02F7, r1
			if(tTime.bMin<59) tTime.bMin++;
     dac:	80 91 f8 02 	lds	r24, 0x02F8
     db0:	8b 33       	cpi	r24, 0x3B	; 59
     db2:	30 f4       	brcc	.+12     	; 0xdc0 <__vector_15+0x1fc>
     db4:	80 91 f8 02 	lds	r24, 0x02F8
     db8:	8f 5f       	subi	r24, 0xFF	; 255
     dba:	80 93 f8 02 	sts	0x02F8, r24
     dbe:	3f c0       	rjmp	.+126    	; 0xe3e <__vector_15+0x27a>
			else{
				tTime.bMin=0;
     dc0:	10 92 f8 02 	sts	0x02F8, r1
				if(tTime.bHour<23) tTime.bHour++;
     dc4:	80 91 f9 02 	lds	r24, 0x02F9
     dc8:	87 31       	cpi	r24, 0x17	; 23
     dca:	30 f4       	brcc	.+12     	; 0xdd8 <__vector_15+0x214>
     dcc:	80 91 f9 02 	lds	r24, 0x02F9
     dd0:	8f 5f       	subi	r24, 0xFF	; 255
     dd2:	80 93 f9 02 	sts	0x02F9, r24
     dd6:	33 c0       	rjmp	.+102    	; 0xe3e <__vector_15+0x27a>
				else {
					tTime.bHour=0;
     dd8:	10 92 f9 02 	sts	0x02F9, r1
					if(tTime.bDay<(aDays[tTime.bMonth-1])){
     ddc:	90 91 fa 02 	lds	r25, 0x02FA
     de0:	e0 91 fb 02 	lds	r30, 0x02FB
     de4:	f0 e0       	ldi	r31, 0x00	; 0
     de6:	ed 5a       	subi	r30, 0xAD	; 173
     de8:	fd 4f       	sbci	r31, 0xFD	; 253
     dea:	80 81       	ld	r24, Z
     dec:	98 17       	cp	r25, r24
     dee:	90 f4       	brcc	.+36     	; 0xe14 <__vector_15+0x250>
						tTime.bDay++;
     df0:	80 91 fa 02 	lds	r24, 0x02FA
     df4:	8f 5f       	subi	r24, 0xFF	; 255
     df6:	80 93 fa 02 	sts	0x02FA, r24
						if(tTime.bDay==29 && tTime.bMonth==2 && (!isLeapYear(tTime.bYear))){
     dfa:	80 91 fa 02 	lds	r24, 0x02FA
     dfe:	8d 31       	cpi	r24, 0x1D	; 29
     e00:	d9 f4       	brne	.+54     	; 0xe38 <__vector_15+0x274>
     e02:	80 91 fb 02 	lds	r24, 0x02FB
     e06:	82 30       	cpi	r24, 0x02	; 2
     e08:	b9 f4       	brne	.+46     	; 0xe38 <__vector_15+0x274>
     e0a:	80 91 fc 02 	lds	r24, 0x02FC
		}else{}
	}
}

int isLeapYear(byte year){
	if((year%4)==0) return 1;
     e0e:	83 70       	andi	r24, 0x03	; 3
     e10:	99 f0       	breq	.+38     	; 0xe38 <__vector_15+0x274>
     e12:	1b c0       	rjmp	.+54     	; 0xe4a <__vector_15+0x286>
						if(tTime.bDay==29 && tTime.bMonth==2 && (!isLeapYear(tTime.bYear))){
							tTime.bDay=1;
							tTime.bMonth=3;
						}
					}else{
						tTime.bDay=1;
     e14:	81 e0       	ldi	r24, 0x01	; 1
     e16:	80 93 fa 02 	sts	0x02FA, r24
						if(tTime.bMonth<12) tTime.bMonth++;
     e1a:	90 91 fb 02 	lds	r25, 0x02FB
     e1e:	9c 30       	cpi	r25, 0x0C	; 12
     e20:	20 f4       	brcc	.+8      	; 0xe2a <__vector_15+0x266>
     e22:	80 91 fb 02 	lds	r24, 0x02FB
     e26:	8f 5f       	subi	r24, 0xFF	; 255
     e28:	14 c0       	rjmp	.+40     	; 0xe52 <__vector_15+0x28e>
						else{
							tTime.bMonth=1;
     e2a:	80 93 fb 02 	sts	0x02FB, r24
							tTime.bYear++;
     e2e:	80 91 fc 02 	lds	r24, 0x02FC
     e32:	8f 5f       	subi	r24, 0xFF	; 255
     e34:	80 93 fc 02 	sts	0x02FC, r24
						}
					}
					bDateChanged=1;
     e38:	81 e0       	ldi	r24, 0x01	; 1
     e3a:	80 93 e9 02 	sts	0x02E9, r24
				}				
			}
			bTimeChanged=1;		// refresh quote every min for the minutes changing
     e3e:	81 e0       	ldi	r24, 0x01	; 1
     e40:	80 93 7a 02 	sts	0x027A, r24
		}
		//bTimeChanged=1;  //refresh quote every sec (testing case)
	}
	bPriLev = bOldPriLev;
     e44:	20 93 fe 02 	sts	0x02FE, r18
     e48:	07 c0       	rjmp	.+14     	; 0xe58 <__vector_15+0x294>
				else {
					tTime.bHour=0;
					if(tTime.bDay<(aDays[tTime.bMonth-1])){
						tTime.bDay++;
						if(tTime.bDay==29 && tTime.bMonth==2 && (!isLeapYear(tTime.bYear))){
							tTime.bDay=1;
     e4a:	81 e0       	ldi	r24, 0x01	; 1
     e4c:	80 93 fa 02 	sts	0x02FA, r24
							tTime.bMonth=3;
     e50:	83 e0       	ldi	r24, 0x03	; 3
     e52:	80 93 fb 02 	sts	0x02FB, r24
     e56:	f0 cf       	rjmp	.-32     	; 0xe38 <__vector_15+0x274>
			bTimeChanged=1;		// refresh quote every min for the minutes changing
		}
		//bTimeChanged=1;  //refresh quote every sec (testing case)
	}
	bPriLev = bOldPriLev;
}
     e58:	ff 91       	pop	r31
     e5a:	ef 91       	pop	r30
     e5c:	9f 91       	pop	r25
     e5e:	8f 91       	pop	r24
     e60:	3f 91       	pop	r19
     e62:	2f 91       	pop	r18
     e64:	0f 90       	pop	r0
     e66:	0b be       	out	0x3b, r0	; 59
     e68:	0f 90       	pop	r0
     e6a:	0f be       	out	0x3f, r0	; 63
     e6c:	0f 90       	pop	r0
     e6e:	1f 90       	pop	r1
     e70:	18 95       	reti

00000e72 <__vector_9>:

/*************************** Timer2 Interrupt / Backlight *****************************/
ISR(TIMER2_COMP_vect){
     e72:	1f 92       	push	r1
     e74:	0f 92       	push	r0
     e76:	0f b6       	in	r0, 0x3f	; 63
     e78:	0f 92       	push	r0
     e7a:	11 24       	eor	r1, r1
     e7c:	2f 93       	push	r18
     e7e:	3f 93       	push	r19
     e80:	8f 93       	push	r24
     e82:	9f 93       	push	r25
	if(bPriLev<PRI_TIMER2) return;
     e84:	80 91 fe 02 	lds	r24, 0x02FE
     e88:	83 30       	cpi	r24, 0x03	; 3
     e8a:	e8 f0       	brcs	.+58     	; 0xec6 <__vector_9+0x54>
	byte bOldPriLev = bPriLev;
     e8c:	20 91 fe 02 	lds	r18, 0x02FE
	
	if(wBacklightCounter<BACKLIGHT_TIME){ wBacklightCounter++; return; }
     e90:	80 91 75 02 	lds	r24, 0x0275
     e94:	90 91 76 02 	lds	r25, 0x0276
     e98:	31 e0       	ldi	r19, 0x01	; 1
     e9a:	8c 32       	cpi	r24, 0x2C	; 44
     e9c:	93 07       	cpc	r25, r19
     e9e:	50 f4       	brcc	.+20     	; 0xeb4 <__vector_9+0x42>
     ea0:	80 91 75 02 	lds	r24, 0x0275
     ea4:	90 91 76 02 	lds	r25, 0x0276
     ea8:	01 96       	adiw	r24, 0x01	; 1
     eaa:	90 93 76 02 	sts	0x0276, r25
     eae:	80 93 75 02 	sts	0x0275, r24
     eb2:	09 c0       	rjmp	.+18     	; 0xec6 <__vector_9+0x54>
	wBacklightCounter=0;
     eb4:	10 92 76 02 	sts	0x0276, r1
     eb8:	10 92 75 02 	sts	0x0275, r1
	STOP_BACKLIGHT();
     ebc:	c0 98       	cbi	0x18, 0	; 24
     ebe:	85 b5       	in	r24, 0x25	; 37
     ec0:	15 bc       	out	0x25, r1	; 37
	
	bPriLev = bOldPriLev;
     ec2:	20 93 fe 02 	sts	0x02FE, r18
}	
     ec6:	9f 91       	pop	r25
     ec8:	8f 91       	pop	r24
     eca:	3f 91       	pop	r19
     ecc:	2f 91       	pop	r18
     ece:	0f 90       	pop	r0
     ed0:	0f be       	out	0x3f, r0	; 63
     ed2:	0f 90       	pop	r0
     ed4:	1f 90       	pop	r1
     ed6:	18 95       	reti

00000ed8 <_init>:

/*******************************************************************/
/*******************************************************************/

void _init(){
	bDateChanged = 1;
     ed8:	81 e0       	ldi	r24, 0x01	; 1
     eda:	80 93 e9 02 	sts	0x02E9, r24
	bPrintQuotes = 1;
     ede:	80 93 01 03 	sts	0x0301, r24
	
	/******************* Pin Configuration ***********************/
	DDRA = 0xf;		// PORTA = output
     ee2:	9f e0       	ldi	r25, 0x0F	; 15
     ee4:	9a bb       	out	0x1a, r25	; 26
	DDRB = 0x1;			// PORTB.0 = output (backlight)
     ee6:	87 bb       	out	0x17, r24	; 23
	
	BUTTON_PORT = BUTTON_A+BUTTON_B+BUTTON_C;		// pins 0,1,4 of BUTTON_PORT (portE) are pulled high
     ee8:	80 ee       	ldi	r24, 0xE0	; 224
     eea:	83 b9       	out	0x03, r24	; 3
	
	
	/******************* ADC Setup / Temperature first *********************/
	ADCSRA = (1<<ADPS2)|(1<<ADPS1)|(1<<ADPS0);		// ADC Prescaler = Fck/128
     eec:	87 e0       	ldi	r24, 0x07	; 7
     eee:	86 b9       	out	0x06, r24	; 6
	ADCSRA |= (1<<ADFR)|(1<<ADEN)|(1<<ADIE);		// Free-running mode, enabling ADC and ADC Interrupt
     ef0:	86 b1       	in	r24, 0x06	; 6
     ef2:	88 6a       	ori	r24, 0xA8	; 168
     ef4:	86 b9       	out	0x06, r24	; 6
	ADC_SET_TEMPERATURE_CHANNEL();
     ef6:	17 b8       	out	0x07, r1	; 7
     ef8:	87 b1       	in	r24, 0x07	; 7
     efa:	8b 60       	ori	r24, 0x0B	; 11
     efc:	87 b9       	out	0x07, r24	; 7
	//OCR2 = 64;
	//TCCR2 = (1<<WGM21)|(1<<WGM20)|(1<<COM21)|(1<<CS20)|(1<<CS21);
	
	
	/******************* LCD Setup *********************/
	InitLCD(0);
     efe:	80 e0       	ldi	r24, 0x00	; 0
     f00:	0e 94 f5 02 	call	0x5ea	; 0x5ea <InitLCD>
	LCDClear();
     f04:	81 e0       	ldi	r24, 0x01	; 1
     f06:	60 e0       	ldi	r22, 0x00	; 0
     f08:	0e 94 c9 02 	call	0x592	; 0x592 <LCDByte>
	LCDWriteStringXY(CLOCK_CURSOR_POSITION,0,"00:00");
     f0c:	8f e0       	ldi	r24, 0x0F	; 15
     f0e:	60 e0       	ldi	r22, 0x00	; 0
     f10:	40 e0       	ldi	r20, 0x00	; 0
     f12:	51 e0       	ldi	r21, 0x01	; 1
     f14:	0e 94 9d 03 	call	0x73a	; 0x73a <LCDWriteStringXY>
	LCDWriteStringXY(TEMP_CURSOR_POSITION-2,1,"T=00.0");
     f18:	80 e0       	ldi	r24, 0x00	; 0
     f1a:	61 e0       	ldi	r22, 0x01	; 1
     f1c:	46 e0       	ldi	r20, 0x06	; 6
     f1e:	51 e0       	ldi	r21, 0x01	; 1
     f20:	0e 94 9d 03 	call	0x73a	; 0x73a <LCDWriteStringXY>
	LCDByte(0b11011111, 1);		// Scrive il carattere : dalla tabella 4 del datasheet HD44780.pdf vediamo che il carattere  11011111;
     f24:	8f ed       	ldi	r24, 0xDF	; 223
     f26:	61 e0       	ldi	r22, 0x01	; 1
     f28:	0e 94 c9 02 	call	0x592	; 0x592 <LCDByte>
								// lo mandiamo come byte (LCDByte()) sapendo che dobbiamo mettere RS a 1 (dato!)
	LCDWriteStringXY(TEMP_CURSOR_POSITION+5, 1, "C");
     f2c:	87 e0       	ldi	r24, 0x07	; 7
     f2e:	61 e0       	ldi	r22, 0x01	; 1
     f30:	4d e0       	ldi	r20, 0x0D	; 13
     f32:	51 e0       	ldi	r21, 0x01	; 1
     f34:	0e 94 9d 03 	call	0x73a	; 0x73a <LCDWriteStringXY>
	LCDWriteStringXY(HUM_CURSOR_POSITION-2, 1, "H=88%");
     f38:	8a e0       	ldi	r24, 0x0A	; 10
     f3a:	61 e0       	ldi	r22, 0x01	; 1
     f3c:	4f e0       	ldi	r20, 0x0F	; 15
     f3e:	51 e0       	ldi	r21, 0x01	; 1
     f40:	0e 94 9d 03 	call	0x73a	; 0x73a <LCDWriteStringXY>
	LCDWriteStringXY(ZONE_CURSOR_POSITION-2,1,"Z=1");
     f44:	81 e1       	ldi	r24, 0x11	; 17
     f46:	61 e0       	ldi	r22, 0x01	; 1
     f48:	45 e1       	ldi	r20, 0x15	; 21
     f4a:	51 e0       	ldi	r21, 0x01	; 1
     f4c:	0e 94 9d 03 	call	0x73a	; 0x73a <LCDWriteStringXY>
	
	
	/******************* Timer0 Setup: RTC *********************/
	TCCR0 |= (1<<CS02)|(1<<CS01)|(1<<CS00);			// clock: F_CPU / 1024
     f50:	83 b7       	in	r24, 0x33	; 51
     f52:	87 60       	ori	r24, 0x07	; 7
     f54:	83 bf       	out	0x33, r24	; 51
	TCCR0 |= (1<<WGM01)|(0<<WGM00);					// Clear Timer on Compare
     f56:	83 b7       	in	r24, 0x33	; 51
     f58:	88 60       	ori	r24, 0x08	; 8
     f5a:	83 bf       	out	0x33, r24	; 51
	TIMSK |= (1<<OCIE0);							// Output compare match interrupt enable
     f5c:	87 b7       	in	r24, 0x37	; 55
     f5e:	82 60       	ori	r24, 0x02	; 2
     f60:	87 bf       	out	0x37, r24	; 55
	OCR0 = 155;										// Interrupt every 10ms
     f62:	8b e9       	ldi	r24, 0x9B	; 155
     f64:	81 bf       	out	0x31, r24	; 49
	
	/******************* Timer2 Setup: backlight *********************/
	TCCR2 |= (1<<WGM21)|(0<<WGM20);
     f66:	85 b5       	in	r24, 0x25	; 37
     f68:	88 60       	ori	r24, 0x08	; 8
     f6a:	85 bd       	out	0x25, r24	; 37
	TIMSK |= (1<<OCIE2);
     f6c:	87 b7       	in	r24, 0x37	; 55
     f6e:	80 68       	ori	r24, 0x80	; 128
     f70:	87 bf       	out	0x37, r24	; 55
	OCR2 = 156;
     f72:	8c e9       	ldi	r24, 0x9C	; 156
     f74:	83 bd       	out	0x23, r24	; 35
	
		
	sei();					// SEt Interrupts: let's start!
     f76:	78 94       	sei
	ADCSRA |= 1<<ADSC;		// ADC Start Conversion
     f78:	36 9a       	sbi	0x06, 6	; 6
}
     f7a:	08 95       	ret

00000f7c <getTemperature>:


double getTemperature(){
     f7c:	af 92       	push	r10
     f7e:	bf 92       	push	r11
     f80:	cf 92       	push	r12
     f82:	df 92       	push	r13
     f84:	ef 92       	push	r14
     f86:	ff 92       	push	r15
     f88:	0f 93       	push	r16
     f8a:	1f 93       	push	r17
	double temp;
	//double dVp;
	//double dRpt;
	
	dVp = VM + ADC * VREF/(1024*GAIN);
     f8c:	64 b1       	in	r22, 0x04	; 4
     f8e:	75 b1       	in	r23, 0x05	; 5
     f90:	80 e0       	ldi	r24, 0x00	; 0
     f92:	90 e0       	ldi	r25, 0x00	; 0
     f94:	0e 94 1d 18 	call	0x303a	; 0x303a <__floatunsisf>
     f98:	20 e0       	ldi	r18, 0x00	; 0
     f9a:	30 e0       	ldi	r19, 0x00	; 0
     f9c:	40 ea       	ldi	r20, 0xA0	; 160
     f9e:	50 e4       	ldi	r21, 0x40	; 64
     fa0:	0e 94 af 18 	call	0x315e	; 0x315e <__mulsf3>
     fa4:	20 e0       	ldi	r18, 0x00	; 0
     fa6:	30 e0       	ldi	r19, 0x00	; 0
     fa8:	48 e4       	ldi	r20, 0x48	; 72
     faa:	58 e4       	ldi	r21, 0x48	; 72
     fac:	0e 94 84 17 	call	0x2f08	; 0x2f08 <__divsf3>
     fb0:	20 e0       	ldi	r18, 0x00	; 0
     fb2:	30 e0       	ldi	r19, 0x00	; 0
     fb4:	40 e2       	ldi	r20, 0x20	; 32
     fb6:	50 e4       	ldi	r21, 0x40	; 64
     fb8:	0e 94 20 17 	call	0x2e40	; 0x2e40 <__addsf3>
     fbc:	9b 01       	movw	r18, r22
     fbe:	ac 01       	movw	r20, r24
     fc0:	20 93 bb 04 	sts	0x04BB, r18
     fc4:	30 93 bc 04 	sts	0x04BC, r19
     fc8:	40 93 bd 04 	sts	0x04BD, r20
     fcc:	50 93 be 04 	sts	0x04BE, r21
	dRpt = (dVp*(R1+R2) - VREF*R2)/(VREF - dVp);
     fd0:	60 91 bb 04 	lds	r22, 0x04BB
     fd4:	70 91 bc 04 	lds	r23, 0x04BC
     fd8:	80 91 bd 04 	lds	r24, 0x04BD
     fdc:	90 91 be 04 	lds	r25, 0x04BE
     fe0:	e0 90 bb 04 	lds	r14, 0x04BB
     fe4:	f0 90 bc 04 	lds	r15, 0x04BC
     fe8:	00 91 bd 04 	lds	r16, 0x04BD
     fec:	10 91 be 04 	lds	r17, 0x04BE
     ff0:	20 e0       	ldi	r18, 0x00	; 0
     ff2:	30 ec       	ldi	r19, 0xC0	; 192
     ff4:	4f e0       	ldi	r20, 0x0F	; 15
     ff6:	55 e4       	ldi	r21, 0x45	; 69
     ff8:	0e 94 af 18 	call	0x315e	; 0x315e <__mulsf3>
     ffc:	20 e0       	ldi	r18, 0x00	; 0
     ffe:	30 ee       	ldi	r19, 0xE0	; 224
    1000:	4b ea       	ldi	r20, 0xAB	; 171
    1002:	55 e4       	ldi	r21, 0x45	; 69
    1004:	0e 94 1f 17 	call	0x2e3e	; 0x2e3e <__subsf3>
    1008:	5b 01       	movw	r10, r22
    100a:	6c 01       	movw	r12, r24
    100c:	60 e0       	ldi	r22, 0x00	; 0
    100e:	70 e0       	ldi	r23, 0x00	; 0
    1010:	80 ea       	ldi	r24, 0xA0	; 160
    1012:	90 e4       	ldi	r25, 0x40	; 64
    1014:	a8 01       	movw	r20, r16
    1016:	97 01       	movw	r18, r14
    1018:	0e 94 1f 17 	call	0x2e3e	; 0x2e3e <__subsf3>
    101c:	9b 01       	movw	r18, r22
    101e:	ac 01       	movw	r20, r24
    1020:	c6 01       	movw	r24, r12
    1022:	b5 01       	movw	r22, r10
    1024:	0e 94 84 17 	call	0x2f08	; 0x2f08 <__divsf3>
    1028:	9b 01       	movw	r18, r22
    102a:	ac 01       	movw	r20, r24
    102c:	20 93 66 02 	sts	0x0266, r18
    1030:	30 93 67 02 	sts	0x0267, r19
    1034:	40 93 68 02 	sts	0x0268, r20
    1038:	50 93 69 02 	sts	0x0269, r21
	temp = (dRpt-RPT0) / K_Rpt;						// Linearization of PT100
    103c:	60 91 66 02 	lds	r22, 0x0266
    1040:	70 91 67 02 	lds	r23, 0x0267
    1044:	80 91 68 02 	lds	r24, 0x0268
    1048:	90 91 69 02 	lds	r25, 0x0269
    104c:	20 e0       	ldi	r18, 0x00	; 0
    104e:	30 e0       	ldi	r19, 0x00	; 0
    1050:	48 ec       	ldi	r20, 0xC8	; 200
    1052:	52 e4       	ldi	r21, 0x42	; 66
    1054:	0e 94 1f 17 	call	0x2e3e	; 0x2e3e <__subsf3>
    1058:	25 ec       	ldi	r18, 0xC5	; 197
    105a:	33 e9       	ldi	r19, 0x93	; 147
    105c:	46 ec       	ldi	r20, 0xC6	; 198
    105e:	5e e3       	ldi	r21, 0x3E	; 62
    1060:	0e 94 84 17 	call	0x2f08	; 0x2f08 <__divsf3>
	
	return temp;
}
    1064:	1f 91       	pop	r17
    1066:	0f 91       	pop	r16
    1068:	ff 90       	pop	r15
    106a:	ef 90       	pop	r14
    106c:	df 90       	pop	r13
    106e:	cf 90       	pop	r12
    1070:	bf 90       	pop	r11
    1072:	af 90       	pop	r10
    1074:	08 95       	ret

00001076 <multiplexADChannel>:
	dRH_comp = dRH/(1.0546-0.00216*(_round(temperature)));		//
	return _round(dRH_comp);
}

void multiplexADChannel(){
	switch(bChannel){
    1076:	80 91 ad 04 	lds	r24, 0x04AD
    107a:	88 23       	and	r24, r24
    107c:	19 f0       	breq	.+6      	; 0x1084 <multiplexADChannel+0xe>
    107e:	81 30       	cpi	r24, 0x01	; 1
    1080:	69 f4       	brne	.+26     	; 0x109c <multiplexADChannel+0x26>
    1082:	06 c0       	rjmp	.+12     	; 0x1090 <multiplexADChannel+0x1a>
		case TEMPERATURE:
			ADC_SET_HUMIDITY_CHANNEL();
    1084:	17 b8       	out	0x07, r1	; 7
    1086:	39 9a       	sbi	0x07, 1	; 7
			bChannel=HUMIDITY;
    1088:	81 e0       	ldi	r24, 0x01	; 1
    108a:	80 93 ad 04 	sts	0x04AD, r24
			break;
    108e:	08 95       	ret
		case HUMIDITY:
			ADC_SET_TEMPERATURE_CHANNEL();
    1090:	17 b8       	out	0x07, r1	; 7
    1092:	87 b1       	in	r24, 0x07	; 7
    1094:	8b 60       	ori	r24, 0x0B	; 11
    1096:	87 b9       	out	0x07, r24	; 7
			bChannel = TEMPERATURE;
    1098:	10 92 ad 04 	sts	0x04AD, r1
    109c:	08 95       	ret

0000109e <ADC_average>:
			break;
		default: break;
	}
}

double ADC_average(double * valuesDOUBLE, byte * valuesBYTE){
    109e:	0f 93       	push	r16
    10a0:	1f 93       	push	r17
    10a2:	cf 93       	push	r28
    10a4:	df 93       	push	r29
	sreg = MCUSR;
    10a6:	24 b7       	in	r18, 0x34	; 52
    10a8:	20 93 b2 04 	sts	0x04B2, r18
	cli();
    10ac:	f8 94       	cli
	
	double value;
	double sumA=0;
	word sumB=0;
	word i;
	if(valuesDOUBLE != NULL){
    10ae:	00 97       	sbiw	r24, 0x00	; 0
    10b0:	d1 f0       	breq	.+52     	; 0x10e6 <ADC_average+0x48>
    10b2:	8c 01       	movw	r16, r24
    10b4:	c0 e0       	ldi	r28, 0x00	; 0
    10b6:	d0 e0       	ldi	r29, 0x00	; 0
    10b8:	60 e0       	ldi	r22, 0x00	; 0
    10ba:	70 e0       	ldi	r23, 0x00	; 0
    10bc:	80 e0       	ldi	r24, 0x00	; 0
    10be:	90 e0       	ldi	r25, 0x00	; 0
		for(i=0;i<NUMBER_OF_CONVERSIONS;i++){
			sumA+=valuesDOUBLE[i];
    10c0:	f8 01       	movw	r30, r16
    10c2:	21 91       	ld	r18, Z+
    10c4:	31 91       	ld	r19, Z+
    10c6:	41 91       	ld	r20, Z+
    10c8:	51 91       	ld	r21, Z+
    10ca:	8f 01       	movw	r16, r30
    10cc:	0e 94 20 17 	call	0x2e40	; 0x2e40 <__addsf3>
	double value;
	double sumA=0;
	word sumB=0;
	word i;
	if(valuesDOUBLE != NULL){
		for(i=0;i<NUMBER_OF_CONVERSIONS;i++){
    10d0:	21 96       	adiw	r28, 0x01	; 1
    10d2:	c4 36       	cpi	r28, 0x64	; 100
    10d4:	d1 05       	cpc	r29, r1
    10d6:	a1 f7       	brne	.-24     	; 0x10c0 <ADC_average+0x22>
			sumA+=valuesDOUBLE[i];
		}
		value=sumA/i;
    10d8:	20 e0       	ldi	r18, 0x00	; 0
    10da:	30 e0       	ldi	r19, 0x00	; 0
    10dc:	48 ec       	ldi	r20, 0xC8	; 200
    10de:	52 e4       	ldi	r21, 0x42	; 66
    10e0:	0e 94 84 17 	call	0x2f08	; 0x2f08 <__divsf3>
    10e4:	15 c0       	rjmp	.+42     	; 0x1110 <__stack+0x11>
    10e6:	86 2f       	mov	r24, r22
    10e8:	97 2f       	mov	r25, r23
    10ea:	fc 01       	movw	r30, r24
	
	double value;
	double sumA=0;
	word sumB=0;
	word i;
	if(valuesDOUBLE != NULL){
    10ec:	60 e0       	ldi	r22, 0x00	; 0
    10ee:	70 e0       	ldi	r23, 0x00	; 0
    10f0:	80 e0       	ldi	r24, 0x00	; 0
    10f2:	90 e0       	ldi	r25, 0x00	; 0
			sumA+=valuesDOUBLE[i];
		}
		value=sumA/i;
	}else{
		for(i=0;i<NUMBER_OF_CONVERSIONS;i++){
			sumB+=valuesBYTE[i];
    10f4:	21 91       	ld	r18, Z+
    10f6:	82 0f       	add	r24, r18
    10f8:	91 1d       	adc	r25, r1
		for(i=0;i<NUMBER_OF_CONVERSIONS;i++){
			sumA+=valuesDOUBLE[i];
		}
		value=sumA/i;
	}else{
		for(i=0;i<NUMBER_OF_CONVERSIONS;i++){
    10fa:	6f 5f       	subi	r22, 0xFF	; 255
    10fc:	7f 4f       	sbci	r23, 0xFF	; 255
    10fe:	64 36       	cpi	r22, 0x64	; 100
    1100:	71 05       	cpc	r23, r1
    1102:	c1 f7       	brne	.-16     	; 0x10f4 <ADC_average+0x56>
			sumB+=valuesBYTE[i];
		}
		value=sumB/i;
    1104:	0e 94 42 19 	call	0x3284	; 0x3284 <__udivmodhi4>
    1108:	80 e0       	ldi	r24, 0x00	; 0
    110a:	90 e0       	ldi	r25, 0x00	; 0
    110c:	0e 94 1d 18 	call	0x303a	; 0x303a <__floatunsisf>
	}	
	
	
	sei();
    1110:	78 94       	sei
	MCUSR = sreg;
    1112:	20 91 b2 04 	lds	r18, 0x04B2
    1116:	24 bf       	out	0x34, r18	; 52
	return value;
}
    1118:	df 91       	pop	r29
    111a:	cf 91       	pop	r28
    111c:	1f 91       	pop	r17
    111e:	0f 91       	pop	r16
    1120:	08 95       	ret

00001122 <refreshQuote>:


void refreshQuote(){
    1122:	0f 93       	push	r16
    1124:	1f 93       	push	r17
    1126:	cf 93       	push	r28
    1128:	df 93       	push	r29
	if(bDateChanged){
    112a:	80 91 e9 02 	lds	r24, 0x02E9
    112e:	88 23       	and	r24, r24
    1130:	a1 f1       	breq	.+104    	; 0x119a <refreshQuote+0x78>
		bDateChanged=0;
    1132:	10 92 e9 02 	sts	0x02E9, r1
		sprintf(str, "%02d/%02d/20%02d,", tTime.bDay, tTime.bMonth, tTime.bYear);
    1136:	40 91 fa 02 	lds	r20, 0x02FA
    113a:	30 91 fb 02 	lds	r19, 0x02FB
    113e:	20 91 fc 02 	lds	r18, 0x02FC
    1142:	8d b7       	in	r24, 0x3d	; 61
    1144:	9e b7       	in	r25, 0x3e	; 62
    1146:	0a 97       	sbiw	r24, 0x0a	; 10
    1148:	0f b6       	in	r0, 0x3f	; 63
    114a:	f8 94       	cli
    114c:	9e bf       	out	0x3e, r25	; 62
    114e:	0f be       	out	0x3f, r0	; 63
    1150:	8d bf       	out	0x3d, r24	; 61
    1152:	ed b7       	in	r30, 0x3d	; 61
    1154:	fe b7       	in	r31, 0x3e	; 62
    1156:	31 96       	adiw	r30, 0x01	; 1
    1158:	c6 ea       	ldi	r28, 0xA6	; 166
    115a:	d1 e0       	ldi	r29, 0x01	; 1
    115c:	ad b7       	in	r26, 0x3d	; 61
    115e:	be b7       	in	r27, 0x3e	; 62
    1160:	12 96       	adiw	r26, 0x02	; 2
    1162:	dc 93       	st	X, r29
    1164:	ce 93       	st	-X, r28
    1166:	11 97       	sbiw	r26, 0x01	; 1
    1168:	89 e1       	ldi	r24, 0x19	; 25
    116a:	91 e0       	ldi	r25, 0x01	; 1
    116c:	93 83       	std	Z+3, r25	; 0x03
    116e:	82 83       	std	Z+2, r24	; 0x02
    1170:	44 83       	std	Z+4, r20	; 0x04
    1172:	15 82       	std	Z+5, r1	; 0x05
    1174:	36 83       	std	Z+6, r19	; 0x06
    1176:	17 82       	std	Z+7, r1	; 0x07
    1178:	20 87       	std	Z+8, r18	; 0x08
    117a:	11 86       	std	Z+9, r1	; 0x09
    117c:	0e 94 83 1a 	call	0x3506	; 0x3506 <sprintf>
		LCDWriteStringXY(0,0,str);
    1180:	ed b7       	in	r30, 0x3d	; 61
    1182:	fe b7       	in	r31, 0x3e	; 62
    1184:	3a 96       	adiw	r30, 0x0a	; 10
    1186:	0f b6       	in	r0, 0x3f	; 63
    1188:	f8 94       	cli
    118a:	fe bf       	out	0x3e, r31	; 62
    118c:	0f be       	out	0x3f, r0	; 63
    118e:	ed bf       	out	0x3d, r30	; 61
    1190:	80 e0       	ldi	r24, 0x00	; 0
    1192:	60 e0       	ldi	r22, 0x00	; 0
    1194:	ae 01       	movw	r20, r28
    1196:	0e 94 9d 03 	call	0x73a	; 0x73a <LCDWriteStringXY>
	}
	if(bTimeChanged){
    119a:	80 91 7a 02 	lds	r24, 0x027A
    119e:	88 23       	and	r24, r24
    11a0:	09 f4       	brne	.+2      	; 0x11a4 <refreshQuote+0x82>
    11a2:	48 c0       	rjmp	.+144    	; 0x1234 <refreshQuote+0x112>
		bTimeChanged=0;
    11a4:	10 92 7a 02 	sts	0x027A, r1
		sprintf(str, "%02d", tTime.bHour);
    11a8:	80 91 f9 02 	lds	r24, 0x02F9
    11ac:	00 d0       	rcall	.+0      	; 0x11ae <refreshQuote+0x8c>
    11ae:	00 d0       	rcall	.+0      	; 0x11b0 <refreshQuote+0x8e>
    11b0:	00 d0       	rcall	.+0      	; 0x11b2 <refreshQuote+0x90>
    11b2:	ed b7       	in	r30, 0x3d	; 61
    11b4:	fe b7       	in	r31, 0x3e	; 62
    11b6:	31 96       	adiw	r30, 0x01	; 1
    11b8:	c6 ea       	ldi	r28, 0xA6	; 166
    11ba:	d1 e0       	ldi	r29, 0x01	; 1
    11bc:	ad b7       	in	r26, 0x3d	; 61
    11be:	be b7       	in	r27, 0x3e	; 62
    11c0:	12 96       	adiw	r26, 0x02	; 2
    11c2:	dc 93       	st	X, r29
    11c4:	ce 93       	st	-X, r28
    11c6:	11 97       	sbiw	r26, 0x01	; 1
    11c8:	0b e2       	ldi	r16, 0x2B	; 43
    11ca:	11 e0       	ldi	r17, 0x01	; 1
    11cc:	13 83       	std	Z+3, r17	; 0x03
    11ce:	02 83       	std	Z+2, r16	; 0x02
    11d0:	84 83       	std	Z+4, r24	; 0x04
    11d2:	15 82       	std	Z+5, r1	; 0x05
    11d4:	0e 94 83 1a 	call	0x3506	; 0x3506 <sprintf>
		LCDWriteStringXY(CLOCK_CURSOR_POSITION, 0, str);
    11d8:	ed b7       	in	r30, 0x3d	; 61
    11da:	fe b7       	in	r31, 0x3e	; 62
    11dc:	36 96       	adiw	r30, 0x06	; 6
    11de:	0f b6       	in	r0, 0x3f	; 63
    11e0:	f8 94       	cli
    11e2:	fe bf       	out	0x3e, r31	; 62
    11e4:	0f be       	out	0x3f, r0	; 63
    11e6:	ed bf       	out	0x3d, r30	; 61
    11e8:	8f e0       	ldi	r24, 0x0F	; 15
    11ea:	60 e0       	ldi	r22, 0x00	; 0
    11ec:	ae 01       	movw	r20, r28
    11ee:	0e 94 9d 03 	call	0x73a	; 0x73a <LCDWriteStringXY>
		sprintf(str, "%02d", tTime.bMin);
    11f2:	80 91 f8 02 	lds	r24, 0x02F8
    11f6:	00 d0       	rcall	.+0      	; 0x11f8 <refreshQuote+0xd6>
    11f8:	00 d0       	rcall	.+0      	; 0x11fa <refreshQuote+0xd8>
    11fa:	00 d0       	rcall	.+0      	; 0x11fc <refreshQuote+0xda>
    11fc:	ed b7       	in	r30, 0x3d	; 61
    11fe:	fe b7       	in	r31, 0x3e	; 62
    1200:	31 96       	adiw	r30, 0x01	; 1
    1202:	ad b7       	in	r26, 0x3d	; 61
    1204:	be b7       	in	r27, 0x3e	; 62
    1206:	12 96       	adiw	r26, 0x02	; 2
    1208:	dc 93       	st	X, r29
    120a:	ce 93       	st	-X, r28
    120c:	11 97       	sbiw	r26, 0x01	; 1
    120e:	13 83       	std	Z+3, r17	; 0x03
    1210:	02 83       	std	Z+2, r16	; 0x02
    1212:	84 83       	std	Z+4, r24	; 0x04
    1214:	15 82       	std	Z+5, r1	; 0x05
    1216:	0e 94 83 1a 	call	0x3506	; 0x3506 <sprintf>
		LCDWriteStringXY(CLOCK_CURSOR_POSITION+3, 0, str);
    121a:	ed b7       	in	r30, 0x3d	; 61
    121c:	fe b7       	in	r31, 0x3e	; 62
    121e:	36 96       	adiw	r30, 0x06	; 6
    1220:	0f b6       	in	r0, 0x3f	; 63
    1222:	f8 94       	cli
    1224:	fe bf       	out	0x3e, r31	; 62
    1226:	0f be       	out	0x3f, r0	; 63
    1228:	ed bf       	out	0x3d, r30	; 61
    122a:	82 e1       	ldi	r24, 0x12	; 18
    122c:	60 e0       	ldi	r22, 0x00	; 0
    122e:	ae 01       	movw	r20, r28
    1230:	0e 94 9d 03 	call	0x73a	; 0x73a <LCDWriteStringXY>
	}
	if(bTempChanged){
    1234:	80 91 ea 02 	lds	r24, 0x02EA
    1238:	88 23       	and	r24, r24
    123a:	e1 f1       	breq	.+120    	; 0x12b4 <refreshQuote+0x192>
		bTempChanged=0;
    123c:	10 92 ea 02 	sts	0x02EA, r1
		sprintf(str, "%04.1f", dTemperature);		// float printed with 4 digits (dot included), 1 of which are decimal, zero padded
    1240:	80 91 c4 04 	lds	r24, 0x04C4
    1244:	90 91 c5 04 	lds	r25, 0x04C5
    1248:	a0 91 c6 04 	lds	r26, 0x04C6
    124c:	b0 91 c7 04 	lds	r27, 0x04C7
    1250:	2d b7       	in	r18, 0x3d	; 61
    1252:	3e b7       	in	r19, 0x3e	; 62
    1254:	28 50       	subi	r18, 0x08	; 8
    1256:	30 40       	sbci	r19, 0x00	; 0
    1258:	0f b6       	in	r0, 0x3f	; 63
    125a:	f8 94       	cli
    125c:	3e bf       	out	0x3e, r19	; 62
    125e:	0f be       	out	0x3f, r0	; 63
    1260:	2d bf       	out	0x3d, r18	; 61
    1262:	4d b7       	in	r20, 0x3d	; 61
    1264:	5e b7       	in	r21, 0x3e	; 62
    1266:	4f 5f       	subi	r20, 0xFF	; 255
    1268:	5f 4f       	sbci	r21, 0xFF	; 255
    126a:	c6 ea       	ldi	r28, 0xA6	; 166
    126c:	d1 e0       	ldi	r29, 0x01	; 1
    126e:	ed b7       	in	r30, 0x3d	; 61
    1270:	fe b7       	in	r31, 0x3e	; 62
    1272:	d2 83       	std	Z+2, r29	; 0x02
    1274:	c1 83       	std	Z+1, r28	; 0x01
    1276:	20 e3       	ldi	r18, 0x30	; 48
    1278:	31 e0       	ldi	r19, 0x01	; 1
    127a:	fa 01       	movw	r30, r20
    127c:	33 83       	std	Z+3, r19	; 0x03
    127e:	22 83       	std	Z+2, r18	; 0x02
    1280:	84 83       	std	Z+4, r24	; 0x04
    1282:	95 83       	std	Z+5, r25	; 0x05
    1284:	a6 83       	std	Z+6, r26	; 0x06
    1286:	b7 83       	std	Z+7, r27	; 0x07
    1288:	0e 94 83 1a 	call	0x3506	; 0x3506 <sprintf>
		LCDWriteStringXY(0,1, "T=");
    128c:	2d b7       	in	r18, 0x3d	; 61
    128e:	3e b7       	in	r19, 0x3e	; 62
    1290:	28 5f       	subi	r18, 0xF8	; 248
    1292:	3f 4f       	sbci	r19, 0xFF	; 255
    1294:	0f b6       	in	r0, 0x3f	; 63
    1296:	f8 94       	cli
    1298:	3e bf       	out	0x3e, r19	; 62
    129a:	0f be       	out	0x3f, r0	; 63
    129c:	2d bf       	out	0x3d, r18	; 61
    129e:	80 e0       	ldi	r24, 0x00	; 0
    12a0:	61 e0       	ldi	r22, 0x01	; 1
    12a2:	47 e3       	ldi	r20, 0x37	; 55
    12a4:	51 e0       	ldi	r21, 0x01	; 1
    12a6:	0e 94 9d 03 	call	0x73a	; 0x73a <LCDWriteStringXY>
		LCDWriteStringXY(TEMP_CURSOR_POSITION,1, str);
    12aa:	82 e0       	ldi	r24, 0x02	; 2
    12ac:	61 e0       	ldi	r22, 0x01	; 1
    12ae:	ae 01       	movw	r20, r28
    12b0:	0e 94 9d 03 	call	0x73a	; 0x73a <LCDWriteStringXY>
	}
	if(bHumChanged){
    12b4:	80 91 e8 02 	lds	r24, 0x02E8
    12b8:	88 23       	and	r24, r24
    12ba:	09 f4       	brne	.+2      	; 0x12be <refreshQuote+0x19c>
    12bc:	43 c0       	rjmp	.+134    	; 0x1344 <refreshQuote+0x222>
		bHumChanged=0;
    12be:	10 92 e8 02 	sts	0x02E8, r1
		sprintf(str, "%2d", bHumidity);
    12c2:	20 91 65 02 	lds	r18, 0x0265
    12c6:	00 d0       	rcall	.+0      	; 0x12c8 <refreshQuote+0x1a6>
    12c8:	00 d0       	rcall	.+0      	; 0x12ca <refreshQuote+0x1a8>
    12ca:	00 d0       	rcall	.+0      	; 0x12cc <refreshQuote+0x1aa>
    12cc:	ed b7       	in	r30, 0x3d	; 61
    12ce:	fe b7       	in	r31, 0x3e	; 62
    12d0:	31 96       	adiw	r30, 0x01	; 1
    12d2:	c6 ea       	ldi	r28, 0xA6	; 166
    12d4:	d1 e0       	ldi	r29, 0x01	; 1
    12d6:	ad b7       	in	r26, 0x3d	; 61
    12d8:	be b7       	in	r27, 0x3e	; 62
    12da:	12 96       	adiw	r26, 0x02	; 2
    12dc:	dc 93       	st	X, r29
    12de:	ce 93       	st	-X, r28
    12e0:	11 97       	sbiw	r26, 0x01	; 1
    12e2:	8a e3       	ldi	r24, 0x3A	; 58
    12e4:	91 e0       	ldi	r25, 0x01	; 1
    12e6:	93 83       	std	Z+3, r25	; 0x03
    12e8:	82 83       	std	Z+2, r24	; 0x02
    12ea:	24 83       	std	Z+4, r18	; 0x04
    12ec:	15 82       	std	Z+5, r1	; 0x05
    12ee:	0e 94 83 1a 	call	0x3506	; 0x3506 <sprintf>
		LCDWriteStringXY(HUM_CURSOR_POSITION, 1, str);
    12f2:	ed b7       	in	r30, 0x3d	; 61
    12f4:	fe b7       	in	r31, 0x3e	; 62
    12f6:	36 96       	adiw	r30, 0x06	; 6
    12f8:	0f b6       	in	r0, 0x3f	; 63
    12fa:	f8 94       	cli
    12fc:	fe bf       	out	0x3e, r31	; 62
    12fe:	0f be       	out	0x3f, r0	; 63
    1300:	ed bf       	out	0x3d, r30	; 61
    1302:	8c e0       	ldi	r24, 0x0C	; 12
    1304:	61 e0       	ldi	r22, 0x01	; 1
    1306:	ae 01       	movw	r20, r28
    1308:	0e 94 9d 03 	call	0x73a	; 0x73a <LCDWriteStringXY>
		if(bHumidity>99){
    130c:	80 91 65 02 	lds	r24, 0x0265
    1310:	84 36       	cpi	r24, 0x64	; 100
    1312:	40 f0       	brcs	.+16     	; 0x1324 <refreshQuote+0x202>
			bHumOverflow=1;		// se l'umidita' arriva al 100% cancella il carattere '%':
    1314:	81 e0       	ldi	r24, 0x01	; 1
    1316:	80 93 b1 04 	sts	0x04B1, r24
			LCDWriteStringXY(HUM_CURSOR_POSITION+3, 1, "%");
    131a:	8f e0       	ldi	r24, 0x0F	; 15
    131c:	61 e0       	ldi	r22, 0x01	; 1
    131e:	4e e3       	ldi	r20, 0x3E	; 62
    1320:	51 e0       	ldi	r21, 0x01	; 1
    1322:	0e c0       	rjmp	.+28     	; 0x1340 <refreshQuote+0x21e>
		}		
		else if(bHumidity<100 && bHumOverflow){		// lo ripristiniamo in questo modo.
    1324:	80 91 65 02 	lds	r24, 0x0265
    1328:	84 36       	cpi	r24, 0x64	; 100
    132a:	60 f4       	brcc	.+24     	; 0x1344 <refreshQuote+0x222>
    132c:	80 91 b1 04 	lds	r24, 0x04B1
    1330:	88 23       	and	r24, r24
    1332:	41 f0       	breq	.+16     	; 0x1344 <refreshQuote+0x222>
			bHumOverflow=0;
    1334:	10 92 b1 04 	sts	0x04B1, r1
			LCDWriteStringXY(HUM_CURSOR_POSITION+2,1,"% ");
    1338:	8e e0       	ldi	r24, 0x0E	; 14
    133a:	61 e0       	ldi	r22, 0x01	; 1
    133c:	40 e4       	ldi	r20, 0x40	; 64
    133e:	51 e0       	ldi	r21, 0x01	; 1
    1340:	0e 94 9d 03 	call	0x73a	; 0x73a <LCDWriteStringXY>
		}else{}
	}
}
    1344:	df 91       	pop	r29
    1346:	cf 91       	pop	r28
    1348:	1f 91       	pop	r17
    134a:	0f 91       	pop	r16
    134c:	08 95       	ret

0000134e <isLeapYear>:

int isLeapYear(byte year){
	if((year%4)==0) return 1;
    134e:	83 70       	andi	r24, 0x03	; 3
    1350:	21 e0       	ldi	r18, 0x01	; 1
    1352:	30 e0       	ldi	r19, 0x00	; 0
    1354:	11 f0       	breq	.+4      	; 0x135a <isLeapYear+0xc>
    1356:	20 e0       	ldi	r18, 0x00	; 0
    1358:	30 e0       	ldi	r19, 0x00	; 0
	return 0;
}
    135a:	c9 01       	movw	r24, r18
    135c:	08 95       	ret

0000135e <changeEditDate>:
			break;
	}
	
}

void changeEditDate(byte bPosition, byte bButton){
    135e:	98 2f       	mov	r25, r24
    1360:	46 2f       	mov	r20, r22
	int bMunita;
	int bMdecine;
	int bDunita;
	int bDdecine;
	
	bYunita = tTimeEditing.bYear % 10;
    1362:	20 91 ac 04 	lds	r18, 0x04AC
	bYdecine = tTimeEditing.bYear / 10;
    1366:	e0 91 ac 04 	lds	r30, 0x04AC
	bMunita = tTimeEditing.bMonth % 10;
    136a:	80 91 ab 04 	lds	r24, 0x04AB
	bMdecine = tTimeEditing.bMonth / 10;
    136e:	f0 91 ab 04 	lds	r31, 0x04AB
	bDunita = tTimeEditing.bDay % 10;
    1372:	30 91 aa 04 	lds	r19, 0x04AA
	bDdecine = tTimeEditing.bDay / 10;
    1376:	a0 91 aa 04 	lds	r26, 0x04AA
		
	switch(bPosition){
    137a:	93 30       	cpi	r25, 0x03	; 3
    137c:	09 f4       	brne	.+2      	; 0x1380 <changeEditDate+0x22>
    137e:	62 c0       	rjmp	.+196    	; 0x1444 <changeEditDate+0xe6>
    1380:	94 30       	cpi	r25, 0x04	; 4
    1382:	30 f4       	brcc	.+12     	; 0x1390 <changeEditDate+0x32>
    1384:	99 23       	and	r25, r25
    1386:	71 f0       	breq	.+28     	; 0x13a4 <changeEditDate+0x46>
    1388:	91 30       	cpi	r25, 0x01	; 1
    138a:	09 f0       	breq	.+2      	; 0x138e <changeEditDate+0x30>
    138c:	e4 c0       	rjmp	.+456    	; 0x1556 <changeEditDate+0x1f8>
    138e:	23 c0       	rjmp	.+70     	; 0x13d6 <changeEditDate+0x78>
    1390:	96 30       	cpi	r25, 0x06	; 6
    1392:	09 f4       	brne	.+2      	; 0x1396 <changeEditDate+0x38>
    1394:	a1 c0       	rjmp	.+322    	; 0x14d8 <changeEditDate+0x17a>
    1396:	97 30       	cpi	r25, 0x07	; 7
    1398:	09 f4       	brne	.+2      	; 0x139c <changeEditDate+0x3e>
    139a:	b4 c0       	rjmp	.+360    	; 0x1504 <changeEditDate+0x1a6>
    139c:	94 30       	cpi	r25, 0x04	; 4
    139e:	09 f0       	breq	.+2      	; 0x13a2 <changeEditDate+0x44>
    13a0:	da c0       	rjmp	.+436    	; 0x1556 <changeEditDate+0x1f8>
    13a2:	67 c0       	rjmp	.+206    	; 0x1472 <changeEditDate+0x114>
		case 0:
			;EDIT_TIME_DATE(0,BTN_A,BTN_B,bButton, tTimeEditing.bDay, bDdecine, bDunita, 3,1)
    13a4:	62 30       	cpi	r22, 0x02	; 2
    13a6:	49 f4       	brne	.+18     	; 0x13ba <changeEditDate+0x5c>
    13a8:	80 91 aa 04 	lds	r24, 0x04AA
    13ac:	86 31       	cpi	r24, 0x16	; 22
    13ae:	08 f0       	brcs	.+2      	; 0x13b2 <changeEditDate+0x54>
    13b0:	d2 c0       	rjmp	.+420    	; 0x1556 <changeEditDate+0x1f8>
    13b2:	80 91 aa 04 	lds	r24, 0x04AA
    13b6:	86 5f       	subi	r24, 0xF6	; 246
    13b8:	0b c0       	rjmp	.+22     	; 0x13d0 <changeEditDate+0x72>
    13ba:	64 30       	cpi	r22, 0x04	; 4
    13bc:	09 f0       	breq	.+2      	; 0x13c0 <changeEditDate+0x62>
    13be:	cb c0       	rjmp	.+406    	; 0x1556 <changeEditDate+0x1f8>
    13c0:	80 91 aa 04 	lds	r24, 0x04AA
    13c4:	8a 30       	cpi	r24, 0x0A	; 10
    13c6:	08 f4       	brcc	.+2      	; 0x13ca <changeEditDate+0x6c>
    13c8:	c6 c0       	rjmp	.+396    	; 0x1556 <changeEditDate+0x1f8>
    13ca:	80 91 aa 04 	lds	r24, 0x04AA
    13ce:	8a 50       	subi	r24, 0x0A	; 10
    13d0:	80 93 aa 04 	sts	0x04AA, r24
    13d4:	08 95       	ret
	
	bYunita = tTimeEditing.bYear % 10;
	bYdecine = tTimeEditing.bYear / 10;
	bMunita = tTimeEditing.bMonth % 10;
	bMdecine = tTimeEditing.bMonth / 10;
	bDunita = tTimeEditing.bDay % 10;
    13d6:	5a e0       	ldi	r21, 0x0A	; 10
    13d8:	83 2f       	mov	r24, r19
    13da:	65 2f       	mov	r22, r21
    13dc:	0e 94 36 19 	call	0x326c	; 0x326c <__udivmodqi4>
    13e0:	29 2f       	mov	r18, r25
    13e2:	30 e0       	ldi	r19, 0x00	; 0
	bDdecine = tTimeEditing.bDay / 10;
    13e4:	8a 2f       	mov	r24, r26
    13e6:	0e 94 36 19 	call	0x326c	; 0x326c <__udivmodqi4>
	switch(bPosition){
		case 0:
			;EDIT_TIME_DATE(0,BTN_A,BTN_B,bButton, tTimeEditing.bDay, bDdecine, bDunita, 3,1)
			break;
		case 1:
			;EDIT_TIME_DATE(1,BTN_A,BTN_B,bButton, tTimeEditing.bDay, bDdecine, bDunita, 3,1)
    13ea:	42 30       	cpi	r20, 0x02	; 2
    13ec:	a9 f4       	brne	.+42     	; 0x1418 <changeEditDate+0xba>
    13ee:	21 15       	cp	r18, r1
    13f0:	31 05       	cpc	r19, r1
    13f2:	39 f4       	brne	.+14     	; 0x1402 <changeEditDate+0xa4>
    13f4:	88 0f       	add	r24, r24
    13f6:	98 2f       	mov	r25, r24
    13f8:	99 0f       	add	r25, r25
    13fa:	99 0f       	add	r25, r25
    13fc:	98 0f       	add	r25, r24
    13fe:	9f 5f       	subi	r25, 0xFF	; 255
    1400:	18 c0       	rjmp	.+48     	; 0x1432 <changeEditDate+0xd4>
	bYunita = tTimeEditing.bYear % 10;
	bYdecine = tTimeEditing.bYear / 10;
	bMunita = tTimeEditing.bMonth % 10;
	bMdecine = tTimeEditing.bMonth / 10;
	bDunita = tTimeEditing.bDay % 10;
	bDdecine = tTimeEditing.bDay / 10;
    1402:	48 2f       	mov	r20, r24
    1404:	50 e0       	ldi	r21, 0x00	; 0
	switch(bPosition){
		case 0:
			;EDIT_TIME_DATE(0,BTN_A,BTN_B,bButton, tTimeEditing.bDay, bDdecine, bDunita, 3,1)
			break;
		case 1:
			;EDIT_TIME_DATE(1,BTN_A,BTN_B,bButton, tTimeEditing.bDay, bDdecine, bDunita, 3,1)
    1406:	43 30       	cpi	r20, 0x03	; 3
    1408:	51 05       	cpc	r21, r1
    140a:	ac f4       	brge	.+42     	; 0x1436 <changeEditDate+0xd8>
    140c:	29 30       	cpi	r18, 0x09	; 9
    140e:	31 05       	cpc	r19, r1
    1410:	91 f0       	breq	.+36     	; 0x1436 <changeEditDate+0xd8>
    1412:	2f 5f       	subi	r18, 0xFF	; 255
    1414:	3f 4f       	sbci	r19, 0xFF	; 255
    1416:	07 c0       	rjmp	.+14     	; 0x1426 <changeEditDate+0xc8>
    1418:	44 30       	cpi	r20, 0x04	; 4
    141a:	69 f4       	brne	.+26     	; 0x1436 <changeEditDate+0xd8>
    141c:	21 15       	cp	r18, r1
    141e:	31 05       	cpc	r19, r1
    1420:	51 f0       	breq	.+20     	; 0x1436 <changeEditDate+0xd8>
    1422:	21 50       	subi	r18, 0x01	; 1
    1424:	30 40       	sbci	r19, 0x00	; 0
    1426:	88 0f       	add	r24, r24
    1428:	98 2f       	mov	r25, r24
    142a:	99 0f       	add	r25, r25
    142c:	99 0f       	add	r25, r25
    142e:	98 0f       	add	r25, r24
    1430:	92 0f       	add	r25, r18
    1432:	90 93 aa 04 	sts	0x04AA, r25
			if(tTimeEditing.bDay==0) tTimeEditing.bDay=1;
    1436:	80 91 aa 04 	lds	r24, 0x04AA
    143a:	88 23       	and	r24, r24
    143c:	09 f0       	breq	.+2      	; 0x1440 <changeEditDate+0xe2>
    143e:	8b c0       	rjmp	.+278    	; 0x1556 <changeEditDate+0x1f8>
    1440:	81 e0       	ldi	r24, 0x01	; 1
    1442:	c6 cf       	rjmp	.-116    	; 0x13d0 <changeEditDate+0x72>
			break;
		case 3:
			;EDIT_TIME_DATE(0,BTN_A,BTN_B,bButton, tTimeEditing.bMonth, bMdecine, bMunita, 1,2)
    1444:	62 30       	cpi	r22, 0x02	; 2
    1446:	49 f4       	brne	.+18     	; 0x145a <changeEditDate+0xfc>
    1448:	80 91 ab 04 	lds	r24, 0x04AB
    144c:	83 30       	cpi	r24, 0x03	; 3
    144e:	08 f0       	brcs	.+2      	; 0x1452 <changeEditDate+0xf4>
    1450:	82 c0       	rjmp	.+260    	; 0x1556 <changeEditDate+0x1f8>
    1452:	80 91 ab 04 	lds	r24, 0x04AB
    1456:	86 5f       	subi	r24, 0xF6	; 246
    1458:	3c c0       	rjmp	.+120    	; 0x14d2 <changeEditDate+0x174>
    145a:	64 30       	cpi	r22, 0x04	; 4
    145c:	09 f0       	breq	.+2      	; 0x1460 <changeEditDate+0x102>
    145e:	7b c0       	rjmp	.+246    	; 0x1556 <changeEditDate+0x1f8>
    1460:	80 91 ab 04 	lds	r24, 0x04AB
    1464:	8a 30       	cpi	r24, 0x0A	; 10
    1466:	08 f4       	brcc	.+2      	; 0x146a <changeEditDate+0x10c>
    1468:	76 c0       	rjmp	.+236    	; 0x1556 <changeEditDate+0x1f8>
    146a:	80 91 ab 04 	lds	r24, 0x04AB
    146e:	8a 50       	subi	r24, 0x0A	; 10
    1470:	30 c0       	rjmp	.+96     	; 0x14d2 <changeEditDate+0x174>
	int bDunita;
	int bDdecine;
	
	bYunita = tTimeEditing.bYear % 10;
	bYdecine = tTimeEditing.bYear / 10;
	bMunita = tTimeEditing.bMonth % 10;
    1472:	5a e0       	ldi	r21, 0x0A	; 10
    1474:	65 2f       	mov	r22, r21
    1476:	0e 94 36 19 	call	0x326c	; 0x326c <__udivmodqi4>
    147a:	29 2f       	mov	r18, r25
    147c:	30 e0       	ldi	r19, 0x00	; 0
	bMdecine = tTimeEditing.bMonth / 10;
    147e:	8f 2f       	mov	r24, r31
    1480:	0e 94 36 19 	call	0x326c	; 0x326c <__udivmodqi4>
			break;
		case 3:
			;EDIT_TIME_DATE(0,BTN_A,BTN_B,bButton, tTimeEditing.bMonth, bMdecine, bMunita, 1,2)
			break;
		case 4:
			;EDIT_TIME_DATE(1,BTN_A,BTN_B,bButton, tTimeEditing.bMonth, bMdecine, bMunita, 1,2)
    1484:	42 30       	cpi	r20, 0x02	; 2
    1486:	81 f4       	brne	.+32     	; 0x14a8 <changeEditDate+0x14a>
    1488:	22 30       	cpi	r18, 0x02	; 2
    148a:	31 05       	cpc	r19, r1
    148c:	1c f4       	brge	.+6      	; 0x1494 <changeEditDate+0x136>
    148e:	2f 5f       	subi	r18, 0xFF	; 255
    1490:	3f 4f       	sbci	r19, 0xFF	; 255
    1492:	11 c0       	rjmp	.+34     	; 0x14b6 <changeEditDate+0x158>
    1494:	88 23       	and	r24, r24
    1496:	b9 f4       	brne	.+46     	; 0x14c6 <changeEditDate+0x168>
    1498:	29 30       	cpi	r18, 0x09	; 9
    149a:	31 05       	cpc	r19, r1
    149c:	a1 f0       	breq	.+40     	; 0x14c6 <changeEditDate+0x168>
    149e:	2f 5f       	subi	r18, 0xFF	; 255
    14a0:	3f 4f       	sbci	r19, 0xFF	; 255
    14a2:	20 93 ab 04 	sts	0x04AB, r18
    14a6:	0f c0       	rjmp	.+30     	; 0x14c6 <changeEditDate+0x168>
    14a8:	44 30       	cpi	r20, 0x04	; 4
    14aa:	69 f4       	brne	.+26     	; 0x14c6 <changeEditDate+0x168>
    14ac:	21 15       	cp	r18, r1
    14ae:	31 05       	cpc	r19, r1
    14b0:	51 f0       	breq	.+20     	; 0x14c6 <changeEditDate+0x168>
    14b2:	21 50       	subi	r18, 0x01	; 1
    14b4:	30 40       	sbci	r19, 0x00	; 0
    14b6:	88 0f       	add	r24, r24
    14b8:	98 2f       	mov	r25, r24
    14ba:	99 0f       	add	r25, r25
    14bc:	99 0f       	add	r25, r25
    14be:	98 0f       	add	r25, r24
    14c0:	92 0f       	add	r25, r18
    14c2:	90 93 ab 04 	sts	0x04AB, r25
			if(tTimeEditing.bMonth==0) tTimeEditing.bMonth=1;
    14c6:	80 91 ab 04 	lds	r24, 0x04AB
    14ca:	88 23       	and	r24, r24
    14cc:	09 f0       	breq	.+2      	; 0x14d0 <changeEditDate+0x172>
    14ce:	43 c0       	rjmp	.+134    	; 0x1556 <changeEditDate+0x1f8>
    14d0:	81 e0       	ldi	r24, 0x01	; 1
    14d2:	80 93 ab 04 	sts	0x04AB, r24
    14d6:	08 95       	ret
			break;
		case 6:
			;EDIT_TIME_DATE(0,BTN_A,BTN_B,bButton, tTimeEditing.bYear, bYdecine, bYunita, 9,9)
    14d8:	62 30       	cpi	r22, 0x02	; 2
    14da:	41 f4       	brne	.+16     	; 0x14ec <changeEditDate+0x18e>
    14dc:	80 91 ac 04 	lds	r24, 0x04AC
    14e0:	8a 35       	cpi	r24, 0x5A	; 90
    14e2:	c8 f5       	brcc	.+114    	; 0x1556 <changeEditDate+0x1f8>
    14e4:	80 91 ac 04 	lds	r24, 0x04AC
    14e8:	86 5f       	subi	r24, 0xF6	; 246
    14ea:	09 c0       	rjmp	.+18     	; 0x14fe <changeEditDate+0x1a0>
    14ec:	64 30       	cpi	r22, 0x04	; 4
    14ee:	99 f5       	brne	.+102    	; 0x1556 <changeEditDate+0x1f8>
    14f0:	80 91 ac 04 	lds	r24, 0x04AC
    14f4:	8a 30       	cpi	r24, 0x0A	; 10
    14f6:	78 f1       	brcs	.+94     	; 0x1556 <changeEditDate+0x1f8>
    14f8:	80 91 ac 04 	lds	r24, 0x04AC
    14fc:	8a 50       	subi	r24, 0x0A	; 10
    14fe:	80 93 ac 04 	sts	0x04AC, r24
    1502:	08 95       	ret
	int bMunita;
	int bMdecine;
	int bDunita;
	int bDdecine;
	
	bYunita = tTimeEditing.bYear % 10;
    1504:	5a e0       	ldi	r21, 0x0A	; 10
    1506:	82 2f       	mov	r24, r18
    1508:	65 2f       	mov	r22, r21
    150a:	0e 94 36 19 	call	0x326c	; 0x326c <__udivmodqi4>
    150e:	29 2f       	mov	r18, r25
    1510:	30 e0       	ldi	r19, 0x00	; 0
	bYdecine = tTimeEditing.bYear / 10;
    1512:	8e 2f       	mov	r24, r30
    1514:	0e 94 36 19 	call	0x326c	; 0x326c <__udivmodqi4>
			break;
		case 6:
			;EDIT_TIME_DATE(0,BTN_A,BTN_B,bButton, tTimeEditing.bYear, bYdecine, bYunita, 9,9)
			break;
		case 7:
			;EDIT_TIME_DATE(1,BTN_A,BTN_B,bButton, tTimeEditing.bYear, bYdecine, bYunita, 9,9)
    1518:	42 30       	cpi	r20, 0x02	; 2
    151a:	71 f4       	brne	.+28     	; 0x1538 <changeEditDate+0x1da>
    151c:	29 30       	cpi	r18, 0x09	; 9
    151e:	31 05       	cpc	r19, r1
    1520:	d1 f0       	breq	.+52     	; 0x1556 <changeEditDate+0x1f8>
    1522:	2f 5f       	subi	r18, 0xFF	; 255
    1524:	3f 4f       	sbci	r19, 0xFF	; 255
    1526:	88 0f       	add	r24, r24
    1528:	98 2f       	mov	r25, r24
    152a:	99 0f       	add	r25, r25
    152c:	99 0f       	add	r25, r25
    152e:	98 0f       	add	r25, r24
    1530:	92 0f       	add	r25, r18
    1532:	90 93 ac 04 	sts	0x04AC, r25
    1536:	08 95       	ret
    1538:	44 30       	cpi	r20, 0x04	; 4
    153a:	69 f4       	brne	.+26     	; 0x1556 <changeEditDate+0x1f8>
    153c:	21 15       	cp	r18, r1
    153e:	31 05       	cpc	r19, r1
    1540:	51 f0       	breq	.+20     	; 0x1556 <changeEditDate+0x1f8>
    1542:	21 50       	subi	r18, 0x01	; 1
    1544:	30 40       	sbci	r19, 0x00	; 0
    1546:	88 0f       	add	r24, r24
    1548:	98 2f       	mov	r25, r24
    154a:	99 0f       	add	r25, r25
    154c:	99 0f       	add	r25, r25
    154e:	98 0f       	add	r25, r24
    1550:	92 0f       	add	r25, r18
    1552:	90 93 ac 04 	sts	0x04AC, r25
    1556:	08 95       	ret

00001558 <checkDate>:
		default:
			break;
	}
}

int checkDate(time_date *time, byte * days){	
    1558:	fc 01       	movw	r30, r24
	/* se bDay supera il valore massimo del corrispondente bMonth,	 *
	 * esso viene portato al massimo valore consentito.				 */
	
	if(time->bDay > days[time->bMonth-1]){
    155a:	86 81       	ldd	r24, Z+6	; 0x06
    155c:	68 0f       	add	r22, r24
    155e:	71 1d       	adc	r23, r1
    1560:	61 50       	subi	r22, 0x01	; 1
    1562:	70 40       	sbci	r23, 0x00	; 0
    1564:	db 01       	movw	r26, r22
    1566:	8c 91       	ld	r24, X
    1568:	95 81       	ldd	r25, Z+5	; 0x05
    156a:	89 17       	cp	r24, r25
    156c:	20 f4       	brcc	.+8      	; 0x1576 <checkDate+0x1e>
		time->bDay = days[time->bMonth-1];
    156e:	85 83       	std	Z+5, r24	; 0x05
		return 1;
    1570:	21 e0       	ldi	r18, 0x01	; 1
    1572:	30 e0       	ldi	r19, 0x00	; 0
    1574:	02 c0       	rjmp	.+4      	; 0x157a <checkDate+0x22>
	}	
	return 0;
    1576:	20 e0       	ldi	r18, 0x00	; 0
    1578:	30 e0       	ldi	r19, 0x00	; 0
}
    157a:	c9 01       	movw	r24, r18
    157c:	08 95       	ret

0000157e <toggleTimeColon>:

void toggleTimeColon(){
	if(bTimeCommaState){
    157e:	80 91 e7 02 	lds	r24, 0x02E7
    1582:	88 23       	and	r24, r24
    1584:	49 f0       	breq	.+18     	; 0x1598 <toggleTimeColon+0x1a>
		LCDWriteStringXY(CLOCK_CURSOR_POSITION+2, 0, ":");
    1586:	81 e1       	ldi	r24, 0x11	; 17
    1588:	60 e0       	ldi	r22, 0x00	; 0
    158a:	43 e4       	ldi	r20, 0x43	; 67
    158c:	51 e0       	ldi	r21, 0x01	; 1
    158e:	0e 94 9d 03 	call	0x73a	; 0x73a <LCDWriteStringXY>
		bTimeCommaState=0;
    1592:	10 92 e7 02 	sts	0x02E7, r1
    1596:	08 95       	ret
	}else{
		LCDWriteStringXY(CLOCK_CURSOR_POSITION+2, 0, " ");
    1598:	81 e1       	ldi	r24, 0x11	; 17
    159a:	60 e0       	ldi	r22, 0x00	; 0
    159c:	45 e4       	ldi	r20, 0x45	; 69
    159e:	51 e0       	ldi	r21, 0x01	; 1
    15a0:	0e 94 9d 03 	call	0x73a	; 0x73a <LCDWriteStringXY>
		bTimeCommaState=1;
    15a4:	81 e0       	ldi	r24, 0x01	; 1
    15a6:	80 93 e7 02 	sts	0x02E7, r24
    15aa:	08 95       	ret

000015ac <main>:

/******************************************************************************/
/*********************************  Main  *************************************/
/******************************************************************************/

int main(void){
    15ac:	2f 92       	push	r2
    15ae:	3f 92       	push	r3
    15b0:	5f 92       	push	r5
    15b2:	6f 92       	push	r6
    15b4:	7f 92       	push	r7
    15b6:	8f 92       	push	r8
    15b8:	9f 92       	push	r9
    15ba:	af 92       	push	r10
    15bc:	bf 92       	push	r11
    15be:	cf 92       	push	r12
    15c0:	df 92       	push	r13
    15c2:	ef 92       	push	r14
    15c4:	ff 92       	push	r15
    15c6:	0f 93       	push	r16
    15c8:	1f 93       	push	r17
    15ca:	df 93       	push	r29
    15cc:	cf 93       	push	r28
    15ce:	0f 92       	push	r0
    15d0:	cd b7       	in	r28, 0x3d	; 61
    15d2:	de b7       	in	r29, 0x3e	; 62
	bPriLev=PRI_MAIN;
    15d4:	89 e0       	ldi	r24, 0x09	; 9
    15d6:	80 93 fe 02 	sts	0x02FE, r24
	
	tTime.bDay=7;
    15da:	87 e0       	ldi	r24, 0x07	; 7
    15dc:	80 93 fa 02 	sts	0x02FA, r24
	tTime.bMonth=8;
    15e0:	88 e0       	ldi	r24, 0x08	; 8
    15e2:	80 93 fb 02 	sts	0x02FB, r24
	tTime.bYear=11;
    15e6:	8b e0       	ldi	r24, 0x0B	; 11
    15e8:	80 93 fc 02 	sts	0x02FC, r24
	
	
	
	_init();
    15ec:	0e 94 6c 07 	call	0xed8	; 0xed8 <_init>
								bSelectionTimeChanged=0;
							}
							break;
						
						case BTN_C:
							bSelectionTime = (bSelectionTime == 0)?1:0;
    15f0:	ff 24       	eor	r15, r15
    15f2:	f3 94       	inc	r15
							LCD_CURSOR_LEFT_N(8-bSelectionTime);
							break;
						case BTN_B:
							bBtn = NO_BTN;
							changeEditTime(bSelectionTime, BTN_B);
							sprintf(str, "%02d:%02d:%02d", tTimeEditing.bHour, tTimeEditing.bMin, tTimeEditing.bSec);
    15f4:	b6 ea       	ldi	r27, 0xA6	; 166
    15f6:	2b 2e       	mov	r2, r27
    15f8:	b1 e0       	ldi	r27, 0x01	; 1
    15fa:	3b 2e       	mov	r3, r27
    15fc:	a6 e7       	ldi	r26, 0x76	; 118
    15fe:	aa 2e       	mov	r10, r26
    1600:	a1 e0       	ldi	r26, 0x01	; 1
    1602:	ba 2e       	mov	r11, r26
							LCDWriteStringXY(3,1,str);
							LCD_CURSOR_LEFT_N(8-bSelectionTime);
    1604:	08 e0       	ldi	r16, 0x08	; 8
    1606:	10 e0       	ldi	r17, 0x00	; 0
							else{ bSelectionTime=0; LCD_CURSOR_LEFT_N(7); }
							if(bSelectionTime==2 || bSelectionTime==5){ LCDCmd(0x14); bSelectionTime++; }
							bBtn = NO_BTN;
							break;
						case BTN_C_LONG:
							bState=STATE_EDIT_TIME_CONFIRM;
    1608:	f5 e0       	ldi	r31, 0x05	; 5
    160a:	7f 2e       	mov	r7, r31
						break;
					
					case BTN_B:
						if(bSelectionMenu>0) bSelectionMenu--;
						else bSelectionMenu=(NUMBER_OF_OPTIONS-1);
						bSelectionMenu %= NUMBER_OF_OPTIONS;
    160c:	e7 e0       	ldi	r30, 0x07	; 7
    160e:	ee 2e       	mov	r14, r30
						bBtn=NO_BTN;
						break;
					
					case BTN_B:
						if(bSelectionMenu>0) bSelectionMenu--;
						else bSelectionMenu=(NUMBER_OF_OPTIONS-1);
    1610:	76 e0       	ldi	r23, 0x06	; 6
    1612:	67 2e       	mov	r6, r23
							case SEL_DATE:
								bState = STATE_EDIT_DATE;
								bBtn = NO_BTN;
								break;
							case SEL_TIME:
								bState = STATE_EDIT_TIME;
    1614:	64 e0       	ldi	r22, 0x04	; 4
    1616:	56 2e       	mov	r5, r22
							bPrintQuotes=0;
							bSelectionMenuChanged=0;
							LCDWriteStringXY(0,0,"-");
							LCDWriteStringXY(1,0, options[bSelectionMenu]);
							LCDWriteStringXY(0,1," ");
							LCDWriteStringXY(1,1, options[bSelectionMenu+1]);
    1618:	54 e1       	ldi	r21, 0x14	; 20
    161a:	85 2e       	mov	r8, r21
    161c:	91 2c       	mov	r9, r1
						LCD_CURSOR_LEFT_N(8-bSelectionDate);
						break;
					case BTN_B:
						bBtn = NO_BTN;
						changeEditDate(bSelectionDate, BTN_B);
						sprintf(str, "%02d/%02d/%02d", tTimeEditing.bDay, tTimeEditing.bMonth, tTimeEditing.bYear);
    161e:	49 e4       	ldi	r20, 0x49	; 73
    1620:	c4 2e       	mov	r12, r20
    1622:	41 e0       	ldi	r20, 0x01	; 1
    1624:	d4 2e       	mov	r13, r20
		//_delay_ms(3000);
	
		
	
	
		switch(bState){
    1626:	20 91 60 02 	lds	r18, 0x0260
    162a:	23 30       	cpi	r18, 0x03	; 3
    162c:	09 f4       	brne	.+2      	; 0x1630 <main+0x84>
    162e:	49 c3       	rjmp	.+1682   	; 0x1cc2 <main+0x716>
    1630:	24 30       	cpi	r18, 0x04	; 4
    1632:	30 f4       	brcc	.+12     	; 0x1640 <main+0x94>
    1634:	21 30       	cpi	r18, 0x01	; 1
    1636:	79 f1       	breq	.+94     	; 0x1696 <main+0xea>
    1638:	22 30       	cpi	r18, 0x02	; 2
    163a:	08 f0       	brcs	.+2      	; 0x163e <main+0x92>
    163c:	ca c0       	rjmp	.+404    	; 0x17d2 <main+0x226>
    163e:	09 c0       	rjmp	.+18     	; 0x1652 <main+0xa6>
    1640:	25 30       	cpi	r18, 0x05	; 5
    1642:	09 f4       	brne	.+2      	; 0x1646 <main+0x9a>
    1644:	cf c5       	rjmp	.+2974   	; 0x21e4 <main+0xc38>
    1646:	25 30       	cpi	r18, 0x05	; 5
    1648:	08 f4       	brcc	.+2      	; 0x164c <main+0xa0>
    164a:	10 c4       	rjmp	.+2080   	; 0x1e6c <main+0x8c0>
    164c:	26 30       	cpi	r18, 0x06	; 6
    164e:	59 f7       	brne	.-42     	; 0x1626 <main+0x7a>
    1650:	b0 c6       	rjmp	.+3424   	; 0x23b2 <main+0xe06>

/*--------------------------------------------------------------------------------------------------*/
			case STATE_IDLE:
				switch(bBtn){
    1652:	80 91 c3 04 	lds	r24, 0x04C3
    1656:	87 30       	cpi	r24, 0x07	; 7
    1658:	28 f4       	brcc	.+10     	; 0x1664 <main+0xb8>
    165a:	82 30       	cpi	r24, 0x02	; 2
    165c:	88 f4       	brcc	.+34     	; 0x1680 <main+0xd4>
    165e:	88 23       	and	r24, r24
    1660:	21 f0       	breq	.+8      	; 0x166a <main+0xbe>
    1662:	e1 cf       	rjmp	.-62     	; 0x1626 <main+0x7a>
    1664:	87 30       	cpi	r24, 0x07	; 7
    1666:	f9 f6       	brne	.-66     	; 0x1626 <main+0x7a>
    1668:	10 c0       	rjmp	.+32     	; 0x168a <main+0xde>
					case NO_BTN:
						if(bTimeColonToToggle){ toggleTimeColon(); bTimeColonToToggle=0; }
    166a:	80 91 ef 02 	lds	r24, 0x02EF
    166e:	88 23       	and	r24, r24
    1670:	21 f0       	breq	.+8      	; 0x167a <main+0xce>
    1672:	0e 94 bf 0a 	call	0x157e	; 0x157e <toggleTimeColon>
    1676:	10 92 ef 02 	sts	0x02EF, r1
						refreshQuote();
    167a:	0e 94 91 08 	call	0x1122	; 0x1122 <refreshQuote>
    167e:	96 c6       	rjmp	.+3372   	; 0x23ac <main+0xe00>
					case BTN_A:
					case BTN_B:
					case BTN_C:
					case BTN_A_LONG:
					case BTN_B_LONG:
						START_BACKLIGHT();
    1680:	c0 9a       	sbi	0x18, 0	; 24
    1682:	85 b5       	in	r24, 0x25	; 37
    1684:	85 60       	ori	r24, 0x05	; 5
    1686:	85 bd       	out	0x25, r24	; 37
    1688:	03 c0       	rjmp	.+6      	; 0x1690 <main+0xe4>
						bBtn=NO_BTN;
						break;
					case BTN_C_LONG:
						bState = STATE_MENU;
    168a:	f0 92 60 02 	sts	0x0260, r15
						BACKLIGHT_ON();
    168e:	c0 9a       	sbi	0x18, 0	; 24
						bBtn=NO_BTN;
    1690:	10 92 c3 04 	sts	0x04C3, r1
						break;
    1694:	c8 cf       	rjmp	.-112    	; 0x1626 <main+0x7a>
				}
				break;
				
/*--------------------------------------------------------------------------------------------------*/				
			case STATE_MENU:
				switch(bBtn){
    1696:	80 91 c3 04 	lds	r24, 0x04C3
    169a:	84 30       	cpi	r24, 0x04	; 4
    169c:	09 f4       	brne	.+2      	; 0x16a0 <main+0xf4>
    169e:	53 c0       	rjmp	.+166    	; 0x1746 <main+0x19a>
    16a0:	85 30       	cpi	r24, 0x05	; 5
    16a2:	30 f4       	brcc	.+12     	; 0x16b0 <main+0x104>
    16a4:	88 23       	and	r24, r24
    16a6:	59 f0       	breq	.+22     	; 0x16be <main+0x112>
    16a8:	82 30       	cpi	r24, 0x02	; 2
    16aa:	09 f0       	breq	.+2      	; 0x16ae <main+0x102>
    16ac:	bc cf       	rjmp	.-136    	; 0x1626 <main+0x7a>
    16ae:	3c c0       	rjmp	.+120    	; 0x1728 <main+0x17c>
    16b0:	86 30       	cpi	r24, 0x06	; 6
    16b2:	09 f4       	brne	.+2      	; 0x16b6 <main+0x10a>
    16b4:	5e c0       	rjmp	.+188    	; 0x1772 <main+0x1c6>
    16b6:	87 30       	cpi	r24, 0x07	; 7
    16b8:	09 f0       	breq	.+2      	; 0x16bc <main+0x110>
    16ba:	b5 cf       	rjmp	.-150    	; 0x1626 <main+0x7a>
    16bc:	6a c0       	rjmp	.+212    	; 0x1792 <main+0x1e6>
					case NO_BTN:
						if(bSelectionMenuChanged || bPrintQuotes){
    16be:	80 91 00 03 	lds	r24, 0x0300
    16c2:	88 23       	and	r24, r24
    16c4:	29 f4       	brne	.+10     	; 0x16d0 <main+0x124>
    16c6:	80 91 01 03 	lds	r24, 0x0301
    16ca:	88 23       	and	r24, r24
    16cc:	09 f4       	brne	.+2      	; 0x16d0 <main+0x124>
    16ce:	ab cf       	rjmp	.-170    	; 0x1626 <main+0x7a>
							bPrintQuotes=0;
    16d0:	10 92 01 03 	sts	0x0301, r1
							bSelectionMenuChanged=0;
    16d4:	10 92 00 03 	sts	0x0300, r1
							LCDWriteStringXY(0,0,"-");
    16d8:	80 e0       	ldi	r24, 0x00	; 0
    16da:	60 e0       	ldi	r22, 0x00	; 0
    16dc:	47 e4       	ldi	r20, 0x47	; 71
    16de:	51 e0       	ldi	r21, 0x01	; 1
    16e0:	0e 94 9d 03 	call	0x73a	; 0x73a <LCDWriteStringXY>
							LCDWriteStringXY(1,0, options[bSelectionMenu]);
    16e4:	40 91 ae 04 	lds	r20, 0x04AE
    16e8:	84 e1       	ldi	r24, 0x14	; 20
    16ea:	48 9f       	mul	r20, r24
    16ec:	a0 01       	movw	r20, r0
    16ee:	11 24       	eor	r1, r1
    16f0:	4c 54       	subi	r20, 0x4C	; 76
    16f2:	5e 4f       	sbci	r21, 0xFE	; 254
    16f4:	81 e0       	ldi	r24, 0x01	; 1
    16f6:	60 e0       	ldi	r22, 0x00	; 0
    16f8:	0e 94 9d 03 	call	0x73a	; 0x73a <LCDWriteStringXY>
							LCDWriteStringXY(0,1," ");
    16fc:	80 e0       	ldi	r24, 0x00	; 0
    16fe:	61 e0       	ldi	r22, 0x01	; 1
    1700:	45 e4       	ldi	r20, 0x45	; 69
    1702:	51 e0       	ldi	r21, 0x01	; 1
    1704:	0e 94 9d 03 	call	0x73a	; 0x73a <LCDWriteStringXY>
							LCDWriteStringXY(1,1, options[bSelectionMenu+1]);
    1708:	80 91 ae 04 	lds	r24, 0x04AE
    170c:	90 e0       	ldi	r25, 0x00	; 0
    170e:	01 96       	adiw	r24, 0x01	; 1
    1710:	88 9d       	mul	r24, r8
    1712:	a0 01       	movw	r20, r0
    1714:	89 9d       	mul	r24, r9
    1716:	50 0d       	add	r21, r0
    1718:	98 9d       	mul	r25, r8
    171a:	50 0d       	add	r21, r0
    171c:	11 24       	eor	r1, r1
    171e:	4c 54       	subi	r20, 0x4C	; 76
    1720:	5e 4f       	sbci	r21, 0xFE	; 254
    1722:	81 e0       	ldi	r24, 0x01	; 1
    1724:	61 e0       	ldi	r22, 0x01	; 1
    1726:	5f c6       	rjmp	.+3262   	; 0x23e6 <main+0xe3a>
						}
						break;
					
					case BTN_A:
						bSelectionMenu++;
    1728:	80 91 ae 04 	lds	r24, 0x04AE
    172c:	8f 5f       	subi	r24, 0xFF	; 255
    172e:	80 93 ae 04 	sts	0x04AE, r24
						bSelectionMenu %= NUMBER_OF_OPTIONS;
    1732:	80 91 ae 04 	lds	r24, 0x04AE
    1736:	6e 2d       	mov	r22, r14
    1738:	0e 94 36 19 	call	0x326c	; 0x326c <__udivmodqi4>
    173c:	90 93 ae 04 	sts	0x04AE, r25
						bSelectionMenuChanged=1;
    1740:	20 93 00 03 	sts	0x0300, r18
    1744:	a5 cf       	rjmp	.-182    	; 0x1690 <main+0xe4>
						bBtn=NO_BTN;
						break;
					
					case BTN_B:
						if(bSelectionMenu>0) bSelectionMenu--;
    1746:	80 91 ae 04 	lds	r24, 0x04AE
    174a:	88 23       	and	r24, r24
    174c:	31 f0       	breq	.+12     	; 0x175a <main+0x1ae>
    174e:	80 91 ae 04 	lds	r24, 0x04AE
    1752:	81 50       	subi	r24, 0x01	; 1
    1754:	80 93 ae 04 	sts	0x04AE, r24
    1758:	02 c0       	rjmp	.+4      	; 0x175e <main+0x1b2>
						else bSelectionMenu=(NUMBER_OF_OPTIONS-1);
    175a:	60 92 ae 04 	sts	0x04AE, r6
						bSelectionMenu %= NUMBER_OF_OPTIONS;
    175e:	80 91 ae 04 	lds	r24, 0x04AE
    1762:	6e 2d       	mov	r22, r14
    1764:	0e 94 36 19 	call	0x326c	; 0x326c <__udivmodqi4>
    1768:	90 93 ae 04 	sts	0x04AE, r25
						bSelectionMenuChanged=1;
    176c:	f0 92 00 03 	sts	0x0300, r15
    1770:	8f cf       	rjmp	.-226    	; 0x1690 <main+0xe4>
						bBtn=NO_BTN;
						break;
					
					case BTN_C:
						switch(bSelectionMenu){
    1772:	90 91 ae 04 	lds	r25, 0x04AE
    1776:	91 30       	cpi	r25, 0x01	; 1
    1778:	39 f0       	breq	.+14     	; 0x1788 <main+0x1dc>
    177a:	91 30       	cpi	r25, 0x01	; 1
    177c:	08 f4       	brcc	.+2      	; 0x1780 <main+0x1d4>
    177e:	9e c2       	rjmp	.+1340   	; 0x1cbc <main+0x710>
    1780:	92 30       	cpi	r25, 0x02	; 2
    1782:	09 f0       	breq	.+2      	; 0x1786 <main+0x1da>
    1784:	13 c6       	rjmp	.+3110   	; 0x23ac <main+0xe00>
    1786:	02 c0       	rjmp	.+4      	; 0x178c <main+0x1e0>
							case SEL_DATE:
								bState = STATE_EDIT_DATE;
    1788:	82 e0       	ldi	r24, 0x02	; 2
    178a:	98 c2       	rjmp	.+1328   	; 0x1cbc <main+0x710>
								bBtn = NO_BTN;
								break;
							case SEL_TIME:
								bState = STATE_EDIT_TIME;
    178c:	50 92 60 02 	sts	0x0260, r5
    1790:	0b c6       	rjmp	.+3094   	; 0x23a8 <main+0xdfc>
						}
						bPrintQuotes=1;
						break;
					
					case BTN_C_LONG:
						bState = STATE_IDLE;
    1792:	10 92 60 02 	sts	0x0260, r1
						bBtn=NO_BTN;
    1796:	10 92 c3 04 	sts	0x04C3, r1
						BACKLIGHT_OFF();
    179a:	c0 98       	cbi	0x18, 0	; 24
						START_BACKLIGHT();
    179c:	c0 9a       	sbi	0x18, 0	; 24
    179e:	85 b5       	in	r24, 0x25	; 37
    17a0:	85 60       	ori	r24, 0x05	; 5
    17a2:	85 bd       	out	0x25, r24	; 37
						
						LCD_RESET();
    17a4:	81 e0       	ldi	r24, 0x01	; 1
    17a6:	60 e0       	ldi	r22, 0x00	; 0
    17a8:	29 83       	std	Y+1, r18	; 0x01
    17aa:	0e 94 c9 02 	call	0x592	; 0x592 <LCDByte>
    17ae:	82 e0       	ldi	r24, 0x02	; 2
    17b0:	60 e0       	ldi	r22, 0x00	; 0
    17b2:	0e 94 c9 02 	call	0x592	; 0x592 <LCDByte>
    17b6:	8c e0       	ldi	r24, 0x0C	; 12
    17b8:	60 e0       	ldi	r22, 0x00	; 0
    17ba:	0e 94 c9 02 	call	0x592	; 0x592 <LCDByte>
						
						bSelectionMenu=0;
    17be:	10 92 ae 04 	sts	0x04AE, r1
						bDateChanged=1;		// Appena rientro in idle stampo le quote
    17c2:	29 81       	ldd	r18, Y+1	; 0x01
    17c4:	20 93 e9 02 	sts	0x02E9, r18
						bTimeChanged=1;
    17c8:	20 93 7a 02 	sts	0x027A, r18
						bTempChanged=1;
    17cc:	20 93 ea 02 	sts	0x02EA, r18
						break;
    17d0:	2a cf       	rjmp	.-428    	; 0x1626 <main+0x7a>
				}				
				break;
			
/*--------------------------------------------------------------------------------------------------*/			
			case STATE_EDIT_DATE:
				switch(bBtn){
    17d2:	80 91 c3 04 	lds	r24, 0x04C3
    17d6:	84 30       	cpi	r24, 0x04	; 4
    17d8:	09 f4       	brne	.+2      	; 0x17dc <main+0x230>
    17da:	f8 c0       	rjmp	.+496    	; 0x19cc <main+0x420>
    17dc:	85 30       	cpi	r24, 0x05	; 5
    17de:	30 f4       	brcc	.+12     	; 0x17ec <main+0x240>
    17e0:	88 23       	and	r24, r24
    17e2:	59 f0       	breq	.+22     	; 0x17fa <main+0x24e>
    17e4:	82 30       	cpi	r24, 0x02	; 2
    17e6:	09 f0       	breq	.+2      	; 0x17ea <main+0x23e>
    17e8:	1e cf       	rjmp	.-452    	; 0x1626 <main+0x7a>
    17ea:	82 c0       	rjmp	.+260    	; 0x18f0 <main+0x344>
    17ec:	86 30       	cpi	r24, 0x06	; 6
    17ee:	09 f4       	brne	.+2      	; 0x17f2 <main+0x246>
    17f0:	58 c1       	rjmp	.+688    	; 0x1aa2 <main+0x4f6>
    17f2:	87 30       	cpi	r24, 0x07	; 7
    17f4:	09 f0       	breq	.+2      	; 0x17f8 <main+0x24c>
    17f6:	17 cf       	rjmp	.-466    	; 0x1626 <main+0x7a>
    17f8:	60 c2       	rjmp	.+1216   	; 0x1cba <main+0x70e>
					case NO_BTN:
						if(bPrintQuotes){
    17fa:	80 91 01 03 	lds	r24, 0x0301
    17fe:	88 23       	and	r24, r24
    1800:	09 f4       	brne	.+2      	; 0x1804 <main+0x258>
    1802:	11 cf       	rjmp	.-478    	; 0x1626 <main+0x7a>
							bPrintQuotes=0;
    1804:	10 92 01 03 	sts	0x0301, r1
							LCDClear();
    1808:	81 e0       	ldi	r24, 0x01	; 1
    180a:	60 e0       	ldi	r22, 0x00	; 0
    180c:	0e 94 c9 02 	call	0x592	; 0x592 <LCDByte>
							tTimeEditing = tTime;
    1810:	a5 ea       	ldi	r26, 0xA5	; 165
    1812:	b4 e0       	ldi	r27, 0x04	; 4
    1814:	e5 ef       	ldi	r30, 0xF5	; 245
    1816:	f2 e0       	ldi	r31, 0x02	; 2
    1818:	88 e0       	ldi	r24, 0x08	; 8
    181a:	01 90       	ld	r0, Z+
    181c:	0d 92       	st	X+, r0
    181e:	81 50       	subi	r24, 0x01	; 1
    1820:	e1 f7       	brne	.-8      	; 0x181a <main+0x26e>
							sprintf(str, "%02d/%02d/%02d", tTimeEditing.bDay, tTimeEditing.bMonth, tTimeEditing.bYear);
    1822:	20 91 aa 04 	lds	r18, 0x04AA
    1826:	90 91 ab 04 	lds	r25, 0x04AB
    182a:	80 91 ac 04 	lds	r24, 0x04AC
    182e:	4d b7       	in	r20, 0x3d	; 61
    1830:	5e b7       	in	r21, 0x3e	; 62
    1832:	4a 50       	subi	r20, 0x0A	; 10
    1834:	50 40       	sbci	r21, 0x00	; 0
    1836:	0f b6       	in	r0, 0x3f	; 63
    1838:	f8 94       	cli
    183a:	5e bf       	out	0x3e, r21	; 62
    183c:	0f be       	out	0x3f, r0	; 63
    183e:	4d bf       	out	0x3d, r20	; 61
    1840:	ed b7       	in	r30, 0x3d	; 61
    1842:	fe b7       	in	r31, 0x3e	; 62
    1844:	31 96       	adiw	r30, 0x01	; 1
    1846:	ad b7       	in	r26, 0x3d	; 61
    1848:	be b7       	in	r27, 0x3e	; 62
    184a:	12 96       	adiw	r26, 0x02	; 2
    184c:	3c 92       	st	X, r3
    184e:	2e 92       	st	-X, r2
    1850:	11 97       	sbiw	r26, 0x01	; 1
    1852:	d3 82       	std	Z+3, r13	; 0x03
    1854:	c2 82       	std	Z+2, r12	; 0x02
    1856:	24 83       	std	Z+4, r18	; 0x04
    1858:	15 82       	std	Z+5, r1	; 0x05
    185a:	96 83       	std	Z+6, r25	; 0x06
    185c:	17 82       	std	Z+7, r1	; 0x07
    185e:	80 87       	std	Z+8, r24	; 0x08
    1860:	11 86       	std	Z+9, r1	; 0x09
    1862:	0e 94 83 1a 	call	0x3506	; 0x3506 <sprintf>
							LCDWriteStringXY(0,0, "Editing date:");
    1866:	ed b7       	in	r30, 0x3d	; 61
    1868:	fe b7       	in	r31, 0x3e	; 62
    186a:	3a 96       	adiw	r30, 0x0a	; 10
    186c:	0f b6       	in	r0, 0x3f	; 63
    186e:	f8 94       	cli
    1870:	fe bf       	out	0x3e, r31	; 62
    1872:	0f be       	out	0x3f, r0	; 63
    1874:	ed bf       	out	0x3d, r30	; 61
    1876:	80 e0       	ldi	r24, 0x00	; 0
    1878:	60 e0       	ldi	r22, 0x00	; 0
    187a:	48 e5       	ldi	r20, 0x58	; 88
    187c:	51 e0       	ldi	r21, 0x01	; 1
    187e:	0e 94 9d 03 	call	0x73a	; 0x73a <LCDWriteStringXY>
							LCDWriteStringXY(3,1, str);
    1882:	83 e0       	ldi	r24, 0x03	; 3
    1884:	61 e0       	ldi	r22, 0x01	; 1
    1886:	a1 01       	movw	r20, r2
    1888:	0e 94 9d 03 	call	0x73a	; 0x73a <LCDWriteStringXY>
							LCDCmd(0x0f);	// set blinking cursor
    188c:	8f e0       	ldi	r24, 0x0F	; 15
    188e:	60 e0       	ldi	r22, 0x00	; 0
    1890:	0e 94 c9 02 	call	0x592	; 0x592 <LCDByte>
							LCD_CURSOR_LEFT_N(8);
    1894:	10 92 61 02 	sts	0x0261, r1
    1898:	10 92 62 02 	sts	0x0262, r1
    189c:	10 92 63 02 	sts	0x0263, r1
    18a0:	10 92 64 02 	sts	0x0264, r1
    18a4:	17 c0       	rjmp	.+46     	; 0x18d4 <main+0x328>
    18a6:	80 e1       	ldi	r24, 0x10	; 16
    18a8:	60 e0       	ldi	r22, 0x00	; 0
    18aa:	0e 94 c9 02 	call	0x592	; 0x592 <LCDByte>
    18ae:	80 91 61 02 	lds	r24, 0x0261
    18b2:	90 91 62 02 	lds	r25, 0x0262
    18b6:	a0 91 63 02 	lds	r26, 0x0263
    18ba:	b0 91 64 02 	lds	r27, 0x0264
    18be:	01 96       	adiw	r24, 0x01	; 1
    18c0:	a1 1d       	adc	r26, r1
    18c2:	b1 1d       	adc	r27, r1
    18c4:	80 93 61 02 	sts	0x0261, r24
    18c8:	90 93 62 02 	sts	0x0262, r25
    18cc:	a0 93 63 02 	sts	0x0263, r26
    18d0:	b0 93 64 02 	sts	0x0264, r27
    18d4:	80 91 61 02 	lds	r24, 0x0261
    18d8:	90 91 62 02 	lds	r25, 0x0262
    18dc:	a0 91 63 02 	lds	r26, 0x0263
    18e0:	b0 91 64 02 	lds	r27, 0x0264
    18e4:	88 30       	cpi	r24, 0x08	; 8
    18e6:	91 05       	cpc	r25, r1
    18e8:	a1 05       	cpc	r26, r1
    18ea:	b1 05       	cpc	r27, r1
    18ec:	e0 f2       	brcs	.-72     	; 0x18a6 <main+0x2fa>
    18ee:	9b ce       	rjmp	.-714    	; 0x1626 <main+0x7a>
						}
						break;
					case BTN_A:
						bBtn = NO_BTN;
    18f0:	10 92 c3 04 	sts	0x04C3, r1
						changeEditDate(bSelectionDate, BTN_A);
    18f4:	80 91 fd 02 	lds	r24, 0x02FD
    18f8:	62 e0       	ldi	r22, 0x02	; 2
    18fa:	0e 94 af 09 	call	0x135e	; 0x135e <changeEditDate>
						sprintf(str, "%02d/%02d/%02d", tTimeEditing.bDay, tTimeEditing.bMonth, tTimeEditing.bYear);
    18fe:	20 91 aa 04 	lds	r18, 0x04AA
    1902:	90 91 ab 04 	lds	r25, 0x04AB
    1906:	80 91 ac 04 	lds	r24, 0x04AC
    190a:	4d b7       	in	r20, 0x3d	; 61
    190c:	5e b7       	in	r21, 0x3e	; 62
    190e:	4a 50       	subi	r20, 0x0A	; 10
    1910:	50 40       	sbci	r21, 0x00	; 0
    1912:	0f b6       	in	r0, 0x3f	; 63
    1914:	f8 94       	cli
    1916:	5e bf       	out	0x3e, r21	; 62
    1918:	0f be       	out	0x3f, r0	; 63
    191a:	4d bf       	out	0x3d, r20	; 61
    191c:	ed b7       	in	r30, 0x3d	; 61
    191e:	fe b7       	in	r31, 0x3e	; 62
    1920:	31 96       	adiw	r30, 0x01	; 1
    1922:	ad b7       	in	r26, 0x3d	; 61
    1924:	be b7       	in	r27, 0x3e	; 62
    1926:	12 96       	adiw	r26, 0x02	; 2
    1928:	3c 92       	st	X, r3
    192a:	2e 92       	st	-X, r2
    192c:	11 97       	sbiw	r26, 0x01	; 1
    192e:	d3 82       	std	Z+3, r13	; 0x03
    1930:	c2 82       	std	Z+2, r12	; 0x02
    1932:	24 83       	std	Z+4, r18	; 0x04
    1934:	15 82       	std	Z+5, r1	; 0x05
    1936:	96 83       	std	Z+6, r25	; 0x06
    1938:	17 82       	std	Z+7, r1	; 0x07
    193a:	80 87       	std	Z+8, r24	; 0x08
    193c:	11 86       	std	Z+9, r1	; 0x09
    193e:	0e 94 83 1a 	call	0x3506	; 0x3506 <sprintf>
						LCDWriteStringXY(3,1,str);
    1942:	ed b7       	in	r30, 0x3d	; 61
    1944:	fe b7       	in	r31, 0x3e	; 62
    1946:	3a 96       	adiw	r30, 0x0a	; 10
    1948:	0f b6       	in	r0, 0x3f	; 63
    194a:	f8 94       	cli
    194c:	fe bf       	out	0x3e, r31	; 62
    194e:	0f be       	out	0x3f, r0	; 63
    1950:	ed bf       	out	0x3d, r30	; 61
    1952:	83 e0       	ldi	r24, 0x03	; 3
    1954:	61 e0       	ldi	r22, 0x01	; 1
    1956:	a1 01       	movw	r20, r2
    1958:	0e 94 9d 03 	call	0x73a	; 0x73a <LCDWriteStringXY>
						LCD_CURSOR_LEFT_N(8-bSelectionDate);
    195c:	10 92 61 02 	sts	0x0261, r1
    1960:	10 92 62 02 	sts	0x0262, r1
    1964:	10 92 63 02 	sts	0x0263, r1
    1968:	10 92 64 02 	sts	0x0264, r1
    196c:	17 c0       	rjmp	.+46     	; 0x199c <main+0x3f0>
    196e:	80 e1       	ldi	r24, 0x10	; 16
    1970:	60 e0       	ldi	r22, 0x00	; 0
    1972:	0e 94 c9 02 	call	0x592	; 0x592 <LCDByte>
    1976:	80 91 61 02 	lds	r24, 0x0261
    197a:	90 91 62 02 	lds	r25, 0x0262
    197e:	a0 91 63 02 	lds	r26, 0x0263
    1982:	b0 91 64 02 	lds	r27, 0x0264
    1986:	01 96       	adiw	r24, 0x01	; 1
    1988:	a1 1d       	adc	r26, r1
    198a:	b1 1d       	adc	r27, r1
    198c:	80 93 61 02 	sts	0x0261, r24
    1990:	90 93 62 02 	sts	0x0262, r25
    1994:	a0 93 63 02 	sts	0x0263, r26
    1998:	b0 93 64 02 	sts	0x0264, r27
    199c:	20 91 61 02 	lds	r18, 0x0261
    19a0:	30 91 62 02 	lds	r19, 0x0262
    19a4:	40 91 63 02 	lds	r20, 0x0263
    19a8:	50 91 64 02 	lds	r21, 0x0264
    19ac:	80 91 fd 02 	lds	r24, 0x02FD
    19b0:	b8 01       	movw	r22, r16
    19b2:	68 1b       	sub	r22, r24
    19b4:	71 09       	sbc	r23, r1
    19b6:	cb 01       	movw	r24, r22
    19b8:	aa 27       	eor	r26, r26
    19ba:	97 fd       	sbrc	r25, 7
    19bc:	a0 95       	com	r26
    19be:	ba 2f       	mov	r27, r26
    19c0:	28 17       	cp	r18, r24
    19c2:	39 07       	cpc	r19, r25
    19c4:	4a 07       	cpc	r20, r26
    19c6:	5b 07       	cpc	r21, r27
    19c8:	90 f2       	brcs	.-92     	; 0x196e <main+0x3c2>
    19ca:	2d ce       	rjmp	.-934    	; 0x1626 <main+0x7a>
						break;
					case BTN_B:
						bBtn = NO_BTN;
    19cc:	10 92 c3 04 	sts	0x04C3, r1
						changeEditDate(bSelectionDate, BTN_B);
    19d0:	80 91 fd 02 	lds	r24, 0x02FD
    19d4:	64 e0       	ldi	r22, 0x04	; 4
    19d6:	0e 94 af 09 	call	0x135e	; 0x135e <changeEditDate>
						sprintf(str, "%02d/%02d/%02d", tTimeEditing.bDay, tTimeEditing.bMonth, tTimeEditing.bYear);
    19da:	20 91 aa 04 	lds	r18, 0x04AA
    19de:	90 91 ab 04 	lds	r25, 0x04AB
    19e2:	80 91 ac 04 	lds	r24, 0x04AC
    19e6:	ad b7       	in	r26, 0x3d	; 61
    19e8:	be b7       	in	r27, 0x3e	; 62
    19ea:	1a 97       	sbiw	r26, 0x0a	; 10
    19ec:	0f b6       	in	r0, 0x3f	; 63
    19ee:	f8 94       	cli
    19f0:	be bf       	out	0x3e, r27	; 62
    19f2:	0f be       	out	0x3f, r0	; 63
    19f4:	ad bf       	out	0x3d, r26	; 61
    19f6:	ed b7       	in	r30, 0x3d	; 61
    19f8:	fe b7       	in	r31, 0x3e	; 62
    19fa:	31 96       	adiw	r30, 0x01	; 1
    19fc:	12 96       	adiw	r26, 0x02	; 2
    19fe:	3c 92       	st	X, r3
    1a00:	2e 92       	st	-X, r2
    1a02:	11 97       	sbiw	r26, 0x01	; 1
    1a04:	d3 82       	std	Z+3, r13	; 0x03
    1a06:	c2 82       	std	Z+2, r12	; 0x02
    1a08:	24 83       	std	Z+4, r18	; 0x04
    1a0a:	15 82       	std	Z+5, r1	; 0x05
    1a0c:	96 83       	std	Z+6, r25	; 0x06
    1a0e:	17 82       	std	Z+7, r1	; 0x07
    1a10:	80 87       	std	Z+8, r24	; 0x08
    1a12:	11 86       	std	Z+9, r1	; 0x09
    1a14:	0e 94 83 1a 	call	0x3506	; 0x3506 <sprintf>
						LCDWriteStringXY(3,1,str);
    1a18:	ed b7       	in	r30, 0x3d	; 61
    1a1a:	fe b7       	in	r31, 0x3e	; 62
    1a1c:	3a 96       	adiw	r30, 0x0a	; 10
    1a1e:	0f b6       	in	r0, 0x3f	; 63
    1a20:	f8 94       	cli
    1a22:	fe bf       	out	0x3e, r31	; 62
    1a24:	0f be       	out	0x3f, r0	; 63
    1a26:	ed bf       	out	0x3d, r30	; 61
    1a28:	83 e0       	ldi	r24, 0x03	; 3
    1a2a:	61 e0       	ldi	r22, 0x01	; 1
    1a2c:	a1 01       	movw	r20, r2
    1a2e:	0e 94 9d 03 	call	0x73a	; 0x73a <LCDWriteStringXY>
						LCD_CURSOR_LEFT_N(8-bSelectionDate);
    1a32:	10 92 61 02 	sts	0x0261, r1
    1a36:	10 92 62 02 	sts	0x0262, r1
    1a3a:	10 92 63 02 	sts	0x0263, r1
    1a3e:	10 92 64 02 	sts	0x0264, r1
    1a42:	17 c0       	rjmp	.+46     	; 0x1a72 <main+0x4c6>
    1a44:	80 e1       	ldi	r24, 0x10	; 16
    1a46:	60 e0       	ldi	r22, 0x00	; 0
    1a48:	0e 94 c9 02 	call	0x592	; 0x592 <LCDByte>
    1a4c:	80 91 61 02 	lds	r24, 0x0261
    1a50:	90 91 62 02 	lds	r25, 0x0262
    1a54:	a0 91 63 02 	lds	r26, 0x0263
    1a58:	b0 91 64 02 	lds	r27, 0x0264
    1a5c:	01 96       	adiw	r24, 0x01	; 1
    1a5e:	a1 1d       	adc	r26, r1
    1a60:	b1 1d       	adc	r27, r1
    1a62:	80 93 61 02 	sts	0x0261, r24
    1a66:	90 93 62 02 	sts	0x0262, r25
    1a6a:	a0 93 63 02 	sts	0x0263, r26
    1a6e:	b0 93 64 02 	sts	0x0264, r27
    1a72:	20 91 61 02 	lds	r18, 0x0261
    1a76:	30 91 62 02 	lds	r19, 0x0262
    1a7a:	40 91 63 02 	lds	r20, 0x0263
    1a7e:	50 91 64 02 	lds	r21, 0x0264
    1a82:	80 91 fd 02 	lds	r24, 0x02FD
    1a86:	b8 01       	movw	r22, r16
    1a88:	68 1b       	sub	r22, r24
    1a8a:	71 09       	sbc	r23, r1
    1a8c:	cb 01       	movw	r24, r22
    1a8e:	aa 27       	eor	r26, r26
    1a90:	97 fd       	sbrc	r25, 7
    1a92:	a0 95       	com	r26
    1a94:	ba 2f       	mov	r27, r26
    1a96:	28 17       	cp	r18, r24
    1a98:	39 07       	cpc	r19, r25
    1a9a:	4a 07       	cpc	r20, r26
    1a9c:	5b 07       	cpc	r21, r27
    1a9e:	90 f2       	brcs	.-92     	; 0x1a44 <main+0x498>
    1aa0:	c2 cd       	rjmp	.-1148   	; 0x1626 <main+0x7a>
						break;
					case BTN_C:
						if(bSelectionDate<7){ LCD_CURSOR_RIGHT_N(1); bSelectionDate++; }
    1aa2:	80 91 fd 02 	lds	r24, 0x02FD
    1aa6:	87 30       	cpi	r24, 0x07	; 7
    1aa8:	90 f5       	brcc	.+100    	; 0x1b0e <main+0x562>
    1aaa:	10 92 61 02 	sts	0x0261, r1
    1aae:	10 92 62 02 	sts	0x0262, r1
    1ab2:	10 92 63 02 	sts	0x0263, r1
    1ab6:	10 92 64 02 	sts	0x0264, r1
    1aba:	17 c0       	rjmp	.+46     	; 0x1aea <main+0x53e>
    1abc:	84 e1       	ldi	r24, 0x14	; 20
    1abe:	60 e0       	ldi	r22, 0x00	; 0
    1ac0:	0e 94 c9 02 	call	0x592	; 0x592 <LCDByte>
    1ac4:	80 91 61 02 	lds	r24, 0x0261
    1ac8:	90 91 62 02 	lds	r25, 0x0262
    1acc:	a0 91 63 02 	lds	r26, 0x0263
    1ad0:	b0 91 64 02 	lds	r27, 0x0264
    1ad4:	01 96       	adiw	r24, 0x01	; 1
    1ad6:	a1 1d       	adc	r26, r1
    1ad8:	b1 1d       	adc	r27, r1
    1ada:	80 93 61 02 	sts	0x0261, r24
    1ade:	90 93 62 02 	sts	0x0262, r25
    1ae2:	a0 93 63 02 	sts	0x0263, r26
    1ae6:	b0 93 64 02 	sts	0x0264, r27
    1aea:	80 91 61 02 	lds	r24, 0x0261
    1aee:	90 91 62 02 	lds	r25, 0x0262
    1af2:	a0 91 63 02 	lds	r26, 0x0263
    1af6:	b0 91 64 02 	lds	r27, 0x0264
    1afa:	00 97       	sbiw	r24, 0x00	; 0
    1afc:	a1 05       	cpc	r26, r1
    1afe:	b1 05       	cpc	r27, r1
    1b00:	e9 f2       	breq	.-70     	; 0x1abc <main+0x510>
    1b02:	80 91 fd 02 	lds	r24, 0x02FD
    1b06:	8f 5f       	subi	r24, 0xFF	; 255
    1b08:	80 93 fd 02 	sts	0x02FD, r24
    1b0c:	2f c0       	rjmp	.+94     	; 0x1b6c <main+0x5c0>
						else{ bSelectionDate=0; LCD_CURSOR_LEFT_N(7); }
    1b0e:	10 92 fd 02 	sts	0x02FD, r1
    1b12:	10 92 61 02 	sts	0x0261, r1
    1b16:	10 92 62 02 	sts	0x0262, r1
    1b1a:	10 92 63 02 	sts	0x0263, r1
    1b1e:	10 92 64 02 	sts	0x0264, r1
    1b22:	17 c0       	rjmp	.+46     	; 0x1b52 <main+0x5a6>
    1b24:	80 e1       	ldi	r24, 0x10	; 16
    1b26:	60 e0       	ldi	r22, 0x00	; 0
    1b28:	0e 94 c9 02 	call	0x592	; 0x592 <LCDByte>
    1b2c:	80 91 61 02 	lds	r24, 0x0261
    1b30:	90 91 62 02 	lds	r25, 0x0262
    1b34:	a0 91 63 02 	lds	r26, 0x0263
    1b38:	b0 91 64 02 	lds	r27, 0x0264
    1b3c:	01 96       	adiw	r24, 0x01	; 1
    1b3e:	a1 1d       	adc	r26, r1
    1b40:	b1 1d       	adc	r27, r1
    1b42:	80 93 61 02 	sts	0x0261, r24
    1b46:	90 93 62 02 	sts	0x0262, r25
    1b4a:	a0 93 63 02 	sts	0x0263, r26
    1b4e:	b0 93 64 02 	sts	0x0264, r27
    1b52:	80 91 61 02 	lds	r24, 0x0261
    1b56:	90 91 62 02 	lds	r25, 0x0262
    1b5a:	a0 91 63 02 	lds	r26, 0x0263
    1b5e:	b0 91 64 02 	lds	r27, 0x0264
    1b62:	87 30       	cpi	r24, 0x07	; 7
    1b64:	91 05       	cpc	r25, r1
    1b66:	a1 05       	cpc	r26, r1
    1b68:	b1 05       	cpc	r27, r1
    1b6a:	e0 f2       	brcs	.-72     	; 0x1b24 <main+0x578>
						// eseguo il controllo della data solo se passo da giorno a mese e da mese a anno
						if(bSelectionDate==2 || bSelectionDate==5){
    1b6c:	80 91 fd 02 	lds	r24, 0x02FD
    1b70:	82 30       	cpi	r24, 0x02	; 2
    1b72:	29 f0       	breq	.+10     	; 0x1b7e <main+0x5d2>
    1b74:	80 91 fd 02 	lds	r24, 0x02FD
    1b78:	85 30       	cpi	r24, 0x05	; 5
    1b7a:	09 f0       	breq	.+2      	; 0x1b7e <main+0x5d2>
    1b7c:	89 cd       	rjmp	.-1262   	; 0x1690 <main+0xe4>
							LCD_CURSOR_RIGHT_N(1);
    1b7e:	10 92 61 02 	sts	0x0261, r1
    1b82:	10 92 62 02 	sts	0x0262, r1
    1b86:	10 92 63 02 	sts	0x0263, r1
    1b8a:	10 92 64 02 	sts	0x0264, r1
    1b8e:	17 c0       	rjmp	.+46     	; 0x1bbe <main+0x612>
    1b90:	84 e1       	ldi	r24, 0x14	; 20
    1b92:	60 e0       	ldi	r22, 0x00	; 0
    1b94:	0e 94 c9 02 	call	0x592	; 0x592 <LCDByte>
    1b98:	80 91 61 02 	lds	r24, 0x0261
    1b9c:	90 91 62 02 	lds	r25, 0x0262
    1ba0:	a0 91 63 02 	lds	r26, 0x0263
    1ba4:	b0 91 64 02 	lds	r27, 0x0264
    1ba8:	01 96       	adiw	r24, 0x01	; 1
    1baa:	a1 1d       	adc	r26, r1
    1bac:	b1 1d       	adc	r27, r1
    1bae:	80 93 61 02 	sts	0x0261, r24
    1bb2:	90 93 62 02 	sts	0x0262, r25
    1bb6:	a0 93 63 02 	sts	0x0263, r26
    1bba:	b0 93 64 02 	sts	0x0264, r27
    1bbe:	80 91 61 02 	lds	r24, 0x0261
    1bc2:	90 91 62 02 	lds	r25, 0x0262
    1bc6:	a0 91 63 02 	lds	r26, 0x0263
    1bca:	b0 91 64 02 	lds	r27, 0x0264
    1bce:	00 97       	sbiw	r24, 0x00	; 0
    1bd0:	a1 05       	cpc	r26, r1
    1bd2:	b1 05       	cpc	r27, r1
    1bd4:	e9 f2       	breq	.-70     	; 0x1b90 <main+0x5e4>
							bSelectionDate++;
    1bd6:	80 91 fd 02 	lds	r24, 0x02FD
    1bda:	8f 5f       	subi	r24, 0xFF	; 255
    1bdc:	80 93 fd 02 	sts	0x02FD, r24
							if(checkDate(&tTimeEditing, aDays)){
    1be0:	85 ea       	ldi	r24, 0xA5	; 165
    1be2:	94 e0       	ldi	r25, 0x04	; 4
    1be4:	64 e5       	ldi	r22, 0x54	; 84
    1be6:	72 e0       	ldi	r23, 0x02	; 2
    1be8:	0e 94 ac 0a 	call	0x1558	; 0x1558 <checkDate>
    1bec:	00 97       	sbiw	r24, 0x00	; 0
    1bee:	09 f4       	brne	.+2      	; 0x1bf2 <main+0x646>
    1bf0:	4f cd       	rjmp	.-1378   	; 0x1690 <main+0xe4>
								sprintf(str, "%02d/%02d/%02d", tTimeEditing.bDay, tTimeEditing.bMonth, tTimeEditing.bYear);
    1bf2:	20 91 aa 04 	lds	r18, 0x04AA
    1bf6:	90 91 ab 04 	lds	r25, 0x04AB
    1bfa:	80 91 ac 04 	lds	r24, 0x04AC
    1bfe:	ad b7       	in	r26, 0x3d	; 61
    1c00:	be b7       	in	r27, 0x3e	; 62
    1c02:	1a 97       	sbiw	r26, 0x0a	; 10
    1c04:	0f b6       	in	r0, 0x3f	; 63
    1c06:	f8 94       	cli
    1c08:	be bf       	out	0x3e, r27	; 62
    1c0a:	0f be       	out	0x3f, r0	; 63
    1c0c:	ad bf       	out	0x3d, r26	; 61
    1c0e:	ed b7       	in	r30, 0x3d	; 61
    1c10:	fe b7       	in	r31, 0x3e	; 62
    1c12:	31 96       	adiw	r30, 0x01	; 1
    1c14:	12 96       	adiw	r26, 0x02	; 2
    1c16:	3c 92       	st	X, r3
    1c18:	2e 92       	st	-X, r2
    1c1a:	11 97       	sbiw	r26, 0x01	; 1
    1c1c:	d3 82       	std	Z+3, r13	; 0x03
    1c1e:	c2 82       	std	Z+2, r12	; 0x02
    1c20:	24 83       	std	Z+4, r18	; 0x04
    1c22:	15 82       	std	Z+5, r1	; 0x05
    1c24:	96 83       	std	Z+6, r25	; 0x06
    1c26:	17 82       	std	Z+7, r1	; 0x07
    1c28:	80 87       	std	Z+8, r24	; 0x08
    1c2a:	11 86       	std	Z+9, r1	; 0x09
    1c2c:	0e 94 83 1a 	call	0x3506	; 0x3506 <sprintf>
								LCDWriteStringXY(3,1,str);
    1c30:	ed b7       	in	r30, 0x3d	; 61
    1c32:	fe b7       	in	r31, 0x3e	; 62
    1c34:	3a 96       	adiw	r30, 0x0a	; 10
    1c36:	0f b6       	in	r0, 0x3f	; 63
    1c38:	f8 94       	cli
    1c3a:	fe bf       	out	0x3e, r31	; 62
    1c3c:	0f be       	out	0x3f, r0	; 63
    1c3e:	ed bf       	out	0x3d, r30	; 61
    1c40:	83 e0       	ldi	r24, 0x03	; 3
    1c42:	61 e0       	ldi	r22, 0x01	; 1
    1c44:	a1 01       	movw	r20, r2
    1c46:	0e 94 9d 03 	call	0x73a	; 0x73a <LCDWriteStringXY>
								LCD_CURSOR_LEFT_N(8-bSelectionDate);
    1c4a:	10 92 61 02 	sts	0x0261, r1
    1c4e:	10 92 62 02 	sts	0x0262, r1
    1c52:	10 92 63 02 	sts	0x0263, r1
    1c56:	10 92 64 02 	sts	0x0264, r1
    1c5a:	17 c0       	rjmp	.+46     	; 0x1c8a <main+0x6de>
    1c5c:	80 e1       	ldi	r24, 0x10	; 16
    1c5e:	60 e0       	ldi	r22, 0x00	; 0
    1c60:	0e 94 c9 02 	call	0x592	; 0x592 <LCDByte>
    1c64:	80 91 61 02 	lds	r24, 0x0261
    1c68:	90 91 62 02 	lds	r25, 0x0262
    1c6c:	a0 91 63 02 	lds	r26, 0x0263
    1c70:	b0 91 64 02 	lds	r27, 0x0264
    1c74:	01 96       	adiw	r24, 0x01	; 1
    1c76:	a1 1d       	adc	r26, r1
    1c78:	b1 1d       	adc	r27, r1
    1c7a:	80 93 61 02 	sts	0x0261, r24
    1c7e:	90 93 62 02 	sts	0x0262, r25
    1c82:	a0 93 63 02 	sts	0x0263, r26
    1c86:	b0 93 64 02 	sts	0x0264, r27
    1c8a:	20 91 61 02 	lds	r18, 0x0261
    1c8e:	30 91 62 02 	lds	r19, 0x0262
    1c92:	40 91 63 02 	lds	r20, 0x0263
    1c96:	50 91 64 02 	lds	r21, 0x0264
    1c9a:	80 91 fd 02 	lds	r24, 0x02FD
    1c9e:	b8 01       	movw	r22, r16
    1ca0:	68 1b       	sub	r22, r24
    1ca2:	71 09       	sbc	r23, r1
    1ca4:	cb 01       	movw	r24, r22
    1ca6:	aa 27       	eor	r26, r26
    1ca8:	97 fd       	sbrc	r25, 7
    1caa:	a0 95       	com	r26
    1cac:	ba 2f       	mov	r27, r26
    1cae:	28 17       	cp	r18, r24
    1cb0:	39 07       	cpc	r19, r25
    1cb2:	4a 07       	cpc	r20, r26
    1cb4:	5b 07       	cpc	r21, r27
    1cb6:	90 f2       	brcs	.-92     	; 0x1c5c <main+0x6b0>
    1cb8:	eb cc       	rjmp	.-1578   	; 0x1690 <main+0xe4>
							}
						}
						bBtn = NO_BTN;
						break;
					case BTN_C_LONG:
						bState=STATE_EDIT_DATE_CONFIRM;
    1cba:	83 e0       	ldi	r24, 0x03	; 3
    1cbc:	80 93 60 02 	sts	0x0260, r24
    1cc0:	73 c3       	rjmp	.+1766   	; 0x23a8 <main+0xdfc>
				}
				break;

/*--------------------------------------------------------------------------------------------------*/
				case STATE_EDIT_DATE_CONFIRM:
					switch(bBtn){
    1cc2:	80 91 c3 04 	lds	r24, 0x04C3
    1cc6:	86 30       	cpi	r24, 0x06	; 6
    1cc8:	09 f4       	brne	.+2      	; 0x1ccc <main+0x720>
    1cca:	b0 c0       	rjmp	.+352    	; 0x1e2c <main+0x880>
    1ccc:	87 30       	cpi	r24, 0x07	; 7
    1cce:	09 f4       	brne	.+2      	; 0x1cd2 <main+0x726>
    1cd0:	b7 c0       	rjmp	.+366    	; 0x1e40 <main+0x894>
    1cd2:	88 23       	and	r24, r24
    1cd4:	09 f0       	breq	.+2      	; 0x1cd8 <main+0x72c>
    1cd6:	a7 cc       	rjmp	.-1714   	; 0x1626 <main+0x7a>
						case NO_BTN:
							if(bPrintQuotes){ 
    1cd8:	80 91 01 03 	lds	r24, 0x0301
    1cdc:	88 23       	and	r24, r24
    1cde:	b9 f1       	breq	.+110    	; 0x1d4e <main+0x7a2>
								LCDWriteStringXY(0,0, "Confermi? Si/No");
    1ce0:	80 e0       	ldi	r24, 0x00	; 0
    1ce2:	60 e0       	ldi	r22, 0x00	; 0
    1ce4:	46 e6       	ldi	r20, 0x66	; 102
    1ce6:	51 e0       	ldi	r21, 0x01	; 1
    1ce8:	0e 94 9d 03 	call	0x73a	; 0x73a <LCDWriteStringXY>
								LCD_CURSOR_LEFT_N(5);
    1cec:	10 92 61 02 	sts	0x0261, r1
    1cf0:	10 92 62 02 	sts	0x0262, r1
    1cf4:	10 92 63 02 	sts	0x0263, r1
    1cf8:	10 92 64 02 	sts	0x0264, r1
    1cfc:	17 c0       	rjmp	.+46     	; 0x1d2c <main+0x780>
    1cfe:	80 e1       	ldi	r24, 0x10	; 16
    1d00:	60 e0       	ldi	r22, 0x00	; 0
    1d02:	0e 94 c9 02 	call	0x592	; 0x592 <LCDByte>
    1d06:	80 91 61 02 	lds	r24, 0x0261
    1d0a:	90 91 62 02 	lds	r25, 0x0262
    1d0e:	a0 91 63 02 	lds	r26, 0x0263
    1d12:	b0 91 64 02 	lds	r27, 0x0264
    1d16:	01 96       	adiw	r24, 0x01	; 1
    1d18:	a1 1d       	adc	r26, r1
    1d1a:	b1 1d       	adc	r27, r1
    1d1c:	80 93 61 02 	sts	0x0261, r24
    1d20:	90 93 62 02 	sts	0x0262, r25
    1d24:	a0 93 63 02 	sts	0x0263, r26
    1d28:	b0 93 64 02 	sts	0x0264, r27
    1d2c:	80 91 61 02 	lds	r24, 0x0261
    1d30:	90 91 62 02 	lds	r25, 0x0262
    1d34:	a0 91 63 02 	lds	r26, 0x0263
    1d38:	b0 91 64 02 	lds	r27, 0x0264
    1d3c:	85 30       	cpi	r24, 0x05	; 5
    1d3e:	91 05       	cpc	r25, r1
    1d40:	a1 05       	cpc	r26, r1
    1d42:	b1 05       	cpc	r27, r1
    1d44:	e0 f2       	brcs	.-72     	; 0x1cfe <main+0x752>
								bPrintQuotes=0;
    1d46:	10 92 01 03 	sts	0x0301, r1
								bSelectionDate=0;
    1d4a:	10 92 fd 02 	sts	0x02FD, r1
							}
							if(bSelectionDateChanged){
    1d4e:	80 91 ff 02 	lds	r24, 0x02FF
    1d52:	88 23       	and	r24, r24
    1d54:	09 f4       	brne	.+2      	; 0x1d58 <main+0x7ac>
    1d56:	67 cc       	rjmp	.-1842   	; 0x1626 <main+0x7a>
								if(bSelectionDate==0){ LCD_SET_CURSOR_POSITION(10); }
    1d58:	80 91 fd 02 	lds	r24, 0x02FD
    1d5c:	88 23       	and	r24, r24
    1d5e:	91 f5       	brne	.+100    	; 0x1dc4 <main+0x818>
    1d60:	82 e0       	ldi	r24, 0x02	; 2
    1d62:	60 e0       	ldi	r22, 0x00	; 0
    1d64:	0e 94 c9 02 	call	0x592	; 0x592 <LCDByte>
    1d68:	10 92 61 02 	sts	0x0261, r1
    1d6c:	10 92 62 02 	sts	0x0262, r1
    1d70:	10 92 63 02 	sts	0x0263, r1
    1d74:	10 92 64 02 	sts	0x0264, r1
    1d78:	17 c0       	rjmp	.+46     	; 0x1da8 <main+0x7fc>
    1d7a:	84 e1       	ldi	r24, 0x14	; 20
    1d7c:	60 e0       	ldi	r22, 0x00	; 0
    1d7e:	0e 94 c9 02 	call	0x592	; 0x592 <LCDByte>
    1d82:	80 91 61 02 	lds	r24, 0x0261
    1d86:	90 91 62 02 	lds	r25, 0x0262
    1d8a:	a0 91 63 02 	lds	r26, 0x0263
    1d8e:	b0 91 64 02 	lds	r27, 0x0264
    1d92:	01 96       	adiw	r24, 0x01	; 1
    1d94:	a1 1d       	adc	r26, r1
    1d96:	b1 1d       	adc	r27, r1
    1d98:	80 93 61 02 	sts	0x0261, r24
    1d9c:	90 93 62 02 	sts	0x0262, r25
    1da0:	a0 93 63 02 	sts	0x0263, r26
    1da4:	b0 93 64 02 	sts	0x0264, r27
    1da8:	80 91 61 02 	lds	r24, 0x0261
    1dac:	90 91 62 02 	lds	r25, 0x0262
    1db0:	a0 91 63 02 	lds	r26, 0x0263
    1db4:	b0 91 64 02 	lds	r27, 0x0264
    1db8:	8a 30       	cpi	r24, 0x0A	; 10
    1dba:	91 05       	cpc	r25, r1
    1dbc:	a1 05       	cpc	r26, r1
    1dbe:	b1 05       	cpc	r27, r1
    1dc0:	e0 f2       	brcs	.-72     	; 0x1d7a <main+0x7ce>
    1dc2:	31 c0       	rjmp	.+98     	; 0x1e26 <main+0x87a>
								else{ LCD_SET_CURSOR_POSITION(13); }
    1dc4:	82 e0       	ldi	r24, 0x02	; 2
    1dc6:	60 e0       	ldi	r22, 0x00	; 0
    1dc8:	0e 94 c9 02 	call	0x592	; 0x592 <LCDByte>
    1dcc:	10 92 61 02 	sts	0x0261, r1
    1dd0:	10 92 62 02 	sts	0x0262, r1
    1dd4:	10 92 63 02 	sts	0x0263, r1
    1dd8:	10 92 64 02 	sts	0x0264, r1
    1ddc:	17 c0       	rjmp	.+46     	; 0x1e0c <main+0x860>
    1dde:	84 e1       	ldi	r24, 0x14	; 20
    1de0:	60 e0       	ldi	r22, 0x00	; 0
    1de2:	0e 94 c9 02 	call	0x592	; 0x592 <LCDByte>
    1de6:	80 91 61 02 	lds	r24, 0x0261
    1dea:	90 91 62 02 	lds	r25, 0x0262
    1dee:	a0 91 63 02 	lds	r26, 0x0263
    1df2:	b0 91 64 02 	lds	r27, 0x0264
    1df6:	01 96       	adiw	r24, 0x01	; 1
    1df8:	a1 1d       	adc	r26, r1
    1dfa:	b1 1d       	adc	r27, r1
    1dfc:	80 93 61 02 	sts	0x0261, r24
    1e00:	90 93 62 02 	sts	0x0262, r25
    1e04:	a0 93 63 02 	sts	0x0263, r26
    1e08:	b0 93 64 02 	sts	0x0264, r27
    1e0c:	80 91 61 02 	lds	r24, 0x0261
    1e10:	90 91 62 02 	lds	r25, 0x0262
    1e14:	a0 91 63 02 	lds	r26, 0x0263
    1e18:	b0 91 64 02 	lds	r27, 0x0264
    1e1c:	8d 30       	cpi	r24, 0x0D	; 13
    1e1e:	91 05       	cpc	r25, r1
    1e20:	a1 05       	cpc	r26, r1
    1e22:	b1 05       	cpc	r27, r1
    1e24:	e0 f2       	brcs	.-72     	; 0x1dde <main+0x832>
								bSelectionDateChanged=0;
    1e26:	10 92 ff 02 	sts	0x02FF, r1
    1e2a:	fd cb       	rjmp	.-2054   	; 0x1626 <main+0x7a>
							}
							break;
						
						case BTN_C:
							bSelectionDate = (bSelectionDate == 0)?1:0;
    1e2c:	90 91 fd 02 	lds	r25, 0x02FD
    1e30:	81 e0       	ldi	r24, 0x01	; 1
    1e32:	91 11       	cpse	r25, r1
    1e34:	80 e0       	ldi	r24, 0x00	; 0
    1e36:	80 93 fd 02 	sts	0x02FD, r24
							bSelectionDateChanged=1;
    1e3a:	f0 92 ff 02 	sts	0x02FF, r15
    1e3e:	28 cc       	rjmp	.-1968   	; 0x1690 <main+0xe4>
							bBtn=NO_BTN;
							break;
						
						case BTN_C_LONG:
							if(bSelectionDate){
    1e40:	80 91 fd 02 	lds	r24, 0x02FD
    1e44:	88 23       	and	r24, r24
    1e46:	29 f0       	breq	.+10     	; 0x1e52 <main+0x8a6>
								bState = STATE_MENU;
    1e48:	f0 92 60 02 	sts	0x0260, r15
								bSelectionDate=0;
    1e4c:	10 92 fd 02 	sts	0x02FD, r1
    1e50:	ab c2       	rjmp	.+1366   	; 0x23a8 <main+0xdfc>
							}else{
								tTime.bDay = tTimeEditing.bDay;
    1e52:	80 91 aa 04 	lds	r24, 0x04AA
    1e56:	80 93 fa 02 	sts	0x02FA, r24
								tTime.bMonth = tTimeEditing.bMonth;
    1e5a:	80 91 ab 04 	lds	r24, 0x04AB
    1e5e:	80 93 fb 02 	sts	0x02FB, r24
								tTime.bYear = tTimeEditing.bYear;
    1e62:	80 91 ac 04 	lds	r24, 0x04AC
    1e66:	80 93 fc 02 	sts	0x02FC, r24
    1e6a:	90 c2       	rjmp	.+1312   	; 0x238c <main+0xde0>
					}
				break;

/*--------------------------------------------------------------------------------------------------*/
			case STATE_EDIT_TIME:
					switch(bBtn){
    1e6c:	80 91 c3 04 	lds	r24, 0x04C3
    1e70:	84 30       	cpi	r24, 0x04	; 4
    1e72:	09 f4       	brne	.+2      	; 0x1e76 <main+0x8ca>
    1e74:	f7 c0       	rjmp	.+494    	; 0x2064 <main+0xab8>
    1e76:	85 30       	cpi	r24, 0x05	; 5
    1e78:	30 f4       	brcc	.+12     	; 0x1e86 <main+0x8da>
    1e7a:	88 23       	and	r24, r24
    1e7c:	59 f0       	breq	.+22     	; 0x1e94 <main+0x8e8>
    1e7e:	82 30       	cpi	r24, 0x02	; 2
    1e80:	09 f0       	breq	.+2      	; 0x1e84 <main+0x8d8>
    1e82:	d1 cb       	rjmp	.-2142   	; 0x1626 <main+0x7a>
    1e84:	7f c0       	rjmp	.+254    	; 0x1f84 <main+0x9d8>
    1e86:	86 30       	cpi	r24, 0x06	; 6
    1e88:	09 f4       	brne	.+2      	; 0x1e8c <main+0x8e0>
    1e8a:	59 c1       	rjmp	.+690    	; 0x213e <main+0xb92>
    1e8c:	87 30       	cpi	r24, 0x07	; 7
    1e8e:	09 f0       	breq	.+2      	; 0x1e92 <main+0x8e6>
    1e90:	ca cb       	rjmp	.-2156   	; 0x1626 <main+0x7a>
    1e92:	a5 c1       	rjmp	.+842    	; 0x21de <main+0xc32>
						case NO_BTN:
							if(bPrintQuotes){
    1e94:	80 91 01 03 	lds	r24, 0x0301
    1e98:	88 23       	and	r24, r24
    1e9a:	09 f4       	brne	.+2      	; 0x1e9e <main+0x8f2>
    1e9c:	c4 cb       	rjmp	.-2168   	; 0x1626 <main+0x7a>
								bPrintQuotes=0;
    1e9e:	10 92 01 03 	sts	0x0301, r1
								LCDClear();
    1ea2:	81 e0       	ldi	r24, 0x01	; 1
    1ea4:	60 e0       	ldi	r22, 0x00	; 0
    1ea6:	0e 94 c9 02 	call	0x592	; 0x592 <LCDByte>
								tTimeEditing = tTime;
    1eaa:	a5 ea       	ldi	r26, 0xA5	; 165
    1eac:	b4 e0       	ldi	r27, 0x04	; 4
    1eae:	e5 ef       	ldi	r30, 0xF5	; 245
    1eb0:	f2 e0       	ldi	r31, 0x02	; 2
    1eb2:	88 e0       	ldi	r24, 0x08	; 8
    1eb4:	01 90       	ld	r0, Z+
    1eb6:	0d 92       	st	X+, r0
    1eb8:	81 50       	subi	r24, 0x01	; 1
    1eba:	e1 f7       	brne	.-8      	; 0x1eb4 <main+0x908>
								sprintf(str, "%02d:%02d:%02d", tTimeEditing.bHour, tTimeEditing.bMin, tTimeEditing.bSec);
    1ebc:	20 91 a9 04 	lds	r18, 0x04A9
    1ec0:	90 91 a8 04 	lds	r25, 0x04A8
    1ec4:	80 91 a7 04 	lds	r24, 0x04A7
    1ec8:	ad b7       	in	r26, 0x3d	; 61
    1eca:	be b7       	in	r27, 0x3e	; 62
    1ecc:	1a 97       	sbiw	r26, 0x0a	; 10
    1ece:	0f b6       	in	r0, 0x3f	; 63
    1ed0:	f8 94       	cli
    1ed2:	be bf       	out	0x3e, r27	; 62
    1ed4:	0f be       	out	0x3f, r0	; 63
    1ed6:	ad bf       	out	0x3d, r26	; 61
    1ed8:	ed b7       	in	r30, 0x3d	; 61
    1eda:	fe b7       	in	r31, 0x3e	; 62
    1edc:	31 96       	adiw	r30, 0x01	; 1
    1ede:	12 96       	adiw	r26, 0x02	; 2
    1ee0:	3c 92       	st	X, r3
    1ee2:	2e 92       	st	-X, r2
    1ee4:	11 97       	sbiw	r26, 0x01	; 1
    1ee6:	b3 82       	std	Z+3, r11	; 0x03
    1ee8:	a2 82       	std	Z+2, r10	; 0x02
    1eea:	24 83       	std	Z+4, r18	; 0x04
    1eec:	15 82       	std	Z+5, r1	; 0x05
    1eee:	96 83       	std	Z+6, r25	; 0x06
    1ef0:	17 82       	std	Z+7, r1	; 0x07
    1ef2:	80 87       	std	Z+8, r24	; 0x08
    1ef4:	11 86       	std	Z+9, r1	; 0x09
    1ef6:	0e 94 83 1a 	call	0x3506	; 0x3506 <sprintf>
								LCDWriteStringXY(0,0, "Editing time:");
    1efa:	ed b7       	in	r30, 0x3d	; 61
    1efc:	fe b7       	in	r31, 0x3e	; 62
    1efe:	3a 96       	adiw	r30, 0x0a	; 10
    1f00:	0f b6       	in	r0, 0x3f	; 63
    1f02:	f8 94       	cli
    1f04:	fe bf       	out	0x3e, r31	; 62
    1f06:	0f be       	out	0x3f, r0	; 63
    1f08:	ed bf       	out	0x3d, r30	; 61
    1f0a:	80 e0       	ldi	r24, 0x00	; 0
    1f0c:	60 e0       	ldi	r22, 0x00	; 0
    1f0e:	45 e8       	ldi	r20, 0x85	; 133
    1f10:	51 e0       	ldi	r21, 0x01	; 1
    1f12:	0e 94 9d 03 	call	0x73a	; 0x73a <LCDWriteStringXY>
								LCDWriteStringXY(3,1, str);
    1f16:	83 e0       	ldi	r24, 0x03	; 3
    1f18:	61 e0       	ldi	r22, 0x01	; 1
    1f1a:	a1 01       	movw	r20, r2
    1f1c:	0e 94 9d 03 	call	0x73a	; 0x73a <LCDWriteStringXY>
								LCDCmd(0x0f);	// set blinking cursor
    1f20:	8f e0       	ldi	r24, 0x0F	; 15
    1f22:	60 e0       	ldi	r22, 0x00	; 0
    1f24:	0e 94 c9 02 	call	0x592	; 0x592 <LCDByte>
								LCD_CURSOR_LEFT_N(8);
    1f28:	10 92 61 02 	sts	0x0261, r1
    1f2c:	10 92 62 02 	sts	0x0262, r1
    1f30:	10 92 63 02 	sts	0x0263, r1
    1f34:	10 92 64 02 	sts	0x0264, r1
    1f38:	17 c0       	rjmp	.+46     	; 0x1f68 <main+0x9bc>
    1f3a:	80 e1       	ldi	r24, 0x10	; 16
    1f3c:	60 e0       	ldi	r22, 0x00	; 0
    1f3e:	0e 94 c9 02 	call	0x592	; 0x592 <LCDByte>
    1f42:	80 91 61 02 	lds	r24, 0x0261
    1f46:	90 91 62 02 	lds	r25, 0x0262
    1f4a:	a0 91 63 02 	lds	r26, 0x0263
    1f4e:	b0 91 64 02 	lds	r27, 0x0264
    1f52:	01 96       	adiw	r24, 0x01	; 1
    1f54:	a1 1d       	adc	r26, r1
    1f56:	b1 1d       	adc	r27, r1
    1f58:	80 93 61 02 	sts	0x0261, r24
    1f5c:	90 93 62 02 	sts	0x0262, r25
    1f60:	a0 93 63 02 	sts	0x0263, r26
    1f64:	b0 93 64 02 	sts	0x0264, r27
    1f68:	80 91 61 02 	lds	r24, 0x0261
    1f6c:	90 91 62 02 	lds	r25, 0x0262
    1f70:	a0 91 63 02 	lds	r26, 0x0263
    1f74:	b0 91 64 02 	lds	r27, 0x0264
    1f78:	88 30       	cpi	r24, 0x08	; 8
    1f7a:	91 05       	cpc	r25, r1
    1f7c:	a1 05       	cpc	r26, r1
    1f7e:	b1 05       	cpc	r27, r1
    1f80:	e0 f2       	brcs	.-72     	; 0x1f3a <main+0x98e>
    1f82:	51 cb       	rjmp	.-2398   	; 0x1626 <main+0x7a>
							}
							break;
						case BTN_A:
							bBtn = NO_BTN;
    1f84:	10 92 c3 04 	sts	0x04C3, r1
							changeEditTime(bSelectionTime, BTN_A);
    1f88:	80 91 77 02 	lds	r24, 0x0277
    1f8c:	90 e0       	ldi	r25, 0x00	; 0
    1f8e:	62 e0       	ldi	r22, 0x02	; 2
    1f90:	70 e0       	ldi	r23, 0x00	; 0
    1f92:	0e 94 e8 00 	call	0x1d0	; 0x1d0 <changeEditTime>
							sprintf(str, "%02d:%02d:%02d", tTimeEditing.bHour, tTimeEditing.bMin, tTimeEditing.bSec);
    1f96:	20 91 a9 04 	lds	r18, 0x04A9
    1f9a:	90 91 a8 04 	lds	r25, 0x04A8
    1f9e:	80 91 a7 04 	lds	r24, 0x04A7
    1fa2:	4d b7       	in	r20, 0x3d	; 61
    1fa4:	5e b7       	in	r21, 0x3e	; 62
    1fa6:	4a 50       	subi	r20, 0x0A	; 10
    1fa8:	50 40       	sbci	r21, 0x00	; 0
    1faa:	0f b6       	in	r0, 0x3f	; 63
    1fac:	f8 94       	cli
    1fae:	5e bf       	out	0x3e, r21	; 62
    1fb0:	0f be       	out	0x3f, r0	; 63
    1fb2:	4d bf       	out	0x3d, r20	; 61
    1fb4:	ed b7       	in	r30, 0x3d	; 61
    1fb6:	fe b7       	in	r31, 0x3e	; 62
    1fb8:	31 96       	adiw	r30, 0x01	; 1
    1fba:	ad b7       	in	r26, 0x3d	; 61
    1fbc:	be b7       	in	r27, 0x3e	; 62
    1fbe:	12 96       	adiw	r26, 0x02	; 2
    1fc0:	3c 92       	st	X, r3
    1fc2:	2e 92       	st	-X, r2
    1fc4:	11 97       	sbiw	r26, 0x01	; 1
    1fc6:	b3 82       	std	Z+3, r11	; 0x03
    1fc8:	a2 82       	std	Z+2, r10	; 0x02
    1fca:	24 83       	std	Z+4, r18	; 0x04
    1fcc:	15 82       	std	Z+5, r1	; 0x05
    1fce:	96 83       	std	Z+6, r25	; 0x06
    1fd0:	17 82       	std	Z+7, r1	; 0x07
    1fd2:	80 87       	std	Z+8, r24	; 0x08
    1fd4:	11 86       	std	Z+9, r1	; 0x09
    1fd6:	0e 94 83 1a 	call	0x3506	; 0x3506 <sprintf>
							LCDWriteStringXY(3,1,str);
    1fda:	ed b7       	in	r30, 0x3d	; 61
    1fdc:	fe b7       	in	r31, 0x3e	; 62
    1fde:	3a 96       	adiw	r30, 0x0a	; 10
    1fe0:	0f b6       	in	r0, 0x3f	; 63
    1fe2:	f8 94       	cli
    1fe4:	fe bf       	out	0x3e, r31	; 62
    1fe6:	0f be       	out	0x3f, r0	; 63
    1fe8:	ed bf       	out	0x3d, r30	; 61
    1fea:	83 e0       	ldi	r24, 0x03	; 3
    1fec:	61 e0       	ldi	r22, 0x01	; 1
    1fee:	a1 01       	movw	r20, r2
    1ff0:	0e 94 9d 03 	call	0x73a	; 0x73a <LCDWriteStringXY>
							LCD_CURSOR_LEFT_N(8-bSelectionTime);
    1ff4:	10 92 61 02 	sts	0x0261, r1
    1ff8:	10 92 62 02 	sts	0x0262, r1
    1ffc:	10 92 63 02 	sts	0x0263, r1
    2000:	10 92 64 02 	sts	0x0264, r1
    2004:	17 c0       	rjmp	.+46     	; 0x2034 <main+0xa88>
    2006:	80 e1       	ldi	r24, 0x10	; 16
    2008:	60 e0       	ldi	r22, 0x00	; 0
    200a:	0e 94 c9 02 	call	0x592	; 0x592 <LCDByte>
    200e:	80 91 61 02 	lds	r24, 0x0261
    2012:	90 91 62 02 	lds	r25, 0x0262
    2016:	a0 91 63 02 	lds	r26, 0x0263
    201a:	b0 91 64 02 	lds	r27, 0x0264
    201e:	01 96       	adiw	r24, 0x01	; 1
    2020:	a1 1d       	adc	r26, r1
    2022:	b1 1d       	adc	r27, r1
    2024:	80 93 61 02 	sts	0x0261, r24
    2028:	90 93 62 02 	sts	0x0262, r25
    202c:	a0 93 63 02 	sts	0x0263, r26
    2030:	b0 93 64 02 	sts	0x0264, r27
    2034:	20 91 61 02 	lds	r18, 0x0261
    2038:	30 91 62 02 	lds	r19, 0x0262
    203c:	40 91 63 02 	lds	r20, 0x0263
    2040:	50 91 64 02 	lds	r21, 0x0264
    2044:	80 91 77 02 	lds	r24, 0x0277
    2048:	b8 01       	movw	r22, r16
    204a:	68 1b       	sub	r22, r24
    204c:	71 09       	sbc	r23, r1
    204e:	cb 01       	movw	r24, r22
    2050:	aa 27       	eor	r26, r26
    2052:	97 fd       	sbrc	r25, 7
    2054:	a0 95       	com	r26
    2056:	ba 2f       	mov	r27, r26
    2058:	28 17       	cp	r18, r24
    205a:	39 07       	cpc	r19, r25
    205c:	4a 07       	cpc	r20, r26
    205e:	5b 07       	cpc	r21, r27
    2060:	90 f2       	brcs	.-92     	; 0x2006 <main+0xa5a>
    2062:	e1 ca       	rjmp	.-2622   	; 0x1626 <main+0x7a>
							break;
						case BTN_B:
							bBtn = NO_BTN;
    2064:	10 92 c3 04 	sts	0x04C3, r1
							changeEditTime(bSelectionTime, BTN_B);
    2068:	80 91 77 02 	lds	r24, 0x0277
    206c:	90 e0       	ldi	r25, 0x00	; 0
    206e:	64 e0       	ldi	r22, 0x04	; 4
    2070:	70 e0       	ldi	r23, 0x00	; 0
    2072:	0e 94 e8 00 	call	0x1d0	; 0x1d0 <changeEditTime>
							sprintf(str, "%02d:%02d:%02d", tTimeEditing.bHour, tTimeEditing.bMin, tTimeEditing.bSec);
    2076:	20 91 a9 04 	lds	r18, 0x04A9
    207a:	90 91 a8 04 	lds	r25, 0x04A8
    207e:	80 91 a7 04 	lds	r24, 0x04A7
    2082:	ad b7       	in	r26, 0x3d	; 61
    2084:	be b7       	in	r27, 0x3e	; 62
    2086:	1a 97       	sbiw	r26, 0x0a	; 10
    2088:	0f b6       	in	r0, 0x3f	; 63
    208a:	f8 94       	cli
    208c:	be bf       	out	0x3e, r27	; 62
    208e:	0f be       	out	0x3f, r0	; 63
    2090:	ad bf       	out	0x3d, r26	; 61
    2092:	ed b7       	in	r30, 0x3d	; 61
    2094:	fe b7       	in	r31, 0x3e	; 62
    2096:	31 96       	adiw	r30, 0x01	; 1
    2098:	12 96       	adiw	r26, 0x02	; 2
    209a:	3c 92       	st	X, r3
    209c:	2e 92       	st	-X, r2
    209e:	11 97       	sbiw	r26, 0x01	; 1
    20a0:	b3 82       	std	Z+3, r11	; 0x03
    20a2:	a2 82       	std	Z+2, r10	; 0x02
    20a4:	24 83       	std	Z+4, r18	; 0x04
    20a6:	15 82       	std	Z+5, r1	; 0x05
    20a8:	96 83       	std	Z+6, r25	; 0x06
    20aa:	17 82       	std	Z+7, r1	; 0x07
    20ac:	80 87       	std	Z+8, r24	; 0x08
    20ae:	11 86       	std	Z+9, r1	; 0x09
    20b0:	0e 94 83 1a 	call	0x3506	; 0x3506 <sprintf>
							LCDWriteStringXY(3,1,str);
    20b4:	ed b7       	in	r30, 0x3d	; 61
    20b6:	fe b7       	in	r31, 0x3e	; 62
    20b8:	3a 96       	adiw	r30, 0x0a	; 10
    20ba:	0f b6       	in	r0, 0x3f	; 63
    20bc:	f8 94       	cli
    20be:	fe bf       	out	0x3e, r31	; 62
    20c0:	0f be       	out	0x3f, r0	; 63
    20c2:	ed bf       	out	0x3d, r30	; 61
    20c4:	83 e0       	ldi	r24, 0x03	; 3
    20c6:	61 e0       	ldi	r22, 0x01	; 1
    20c8:	a1 01       	movw	r20, r2
    20ca:	0e 94 9d 03 	call	0x73a	; 0x73a <LCDWriteStringXY>
							LCD_CURSOR_LEFT_N(8-bSelectionTime);
    20ce:	10 92 61 02 	sts	0x0261, r1
    20d2:	10 92 62 02 	sts	0x0262, r1
    20d6:	10 92 63 02 	sts	0x0263, r1
    20da:	10 92 64 02 	sts	0x0264, r1
    20de:	17 c0       	rjmp	.+46     	; 0x210e <main+0xb62>
    20e0:	80 e1       	ldi	r24, 0x10	; 16
    20e2:	60 e0       	ldi	r22, 0x00	; 0
    20e4:	0e 94 c9 02 	call	0x592	; 0x592 <LCDByte>
    20e8:	80 91 61 02 	lds	r24, 0x0261
    20ec:	90 91 62 02 	lds	r25, 0x0262
    20f0:	a0 91 63 02 	lds	r26, 0x0263
    20f4:	b0 91 64 02 	lds	r27, 0x0264
    20f8:	01 96       	adiw	r24, 0x01	; 1
    20fa:	a1 1d       	adc	r26, r1
    20fc:	b1 1d       	adc	r27, r1
    20fe:	80 93 61 02 	sts	0x0261, r24
    2102:	90 93 62 02 	sts	0x0262, r25
    2106:	a0 93 63 02 	sts	0x0263, r26
    210a:	b0 93 64 02 	sts	0x0264, r27
    210e:	20 91 61 02 	lds	r18, 0x0261
    2112:	30 91 62 02 	lds	r19, 0x0262
    2116:	40 91 63 02 	lds	r20, 0x0263
    211a:	50 91 64 02 	lds	r21, 0x0264
    211e:	80 91 77 02 	lds	r24, 0x0277
    2122:	b8 01       	movw	r22, r16
    2124:	68 1b       	sub	r22, r24
    2126:	71 09       	sbc	r23, r1
    2128:	cb 01       	movw	r24, r22
    212a:	aa 27       	eor	r26, r26
    212c:	97 fd       	sbrc	r25, 7
    212e:	a0 95       	com	r26
    2130:	ba 2f       	mov	r27, r26
    2132:	28 17       	cp	r18, r24
    2134:	39 07       	cpc	r19, r25
    2136:	4a 07       	cpc	r20, r26
    2138:	5b 07       	cpc	r21, r27
    213a:	90 f2       	brcs	.-92     	; 0x20e0 <main+0xb34>
    213c:	74 ca       	rjmp	.-2840   	; 0x1626 <main+0x7a>
							break;
						case BTN_C:
							if(bSelectionTime<7){ LCDCmd(0x14); bSelectionTime++; }
    213e:	80 91 77 02 	lds	r24, 0x0277
    2142:	87 30       	cpi	r24, 0x07	; 7
    2144:	50 f4       	brcc	.+20     	; 0x215a <main+0xbae>
    2146:	84 e1       	ldi	r24, 0x14	; 20
    2148:	60 e0       	ldi	r22, 0x00	; 0
    214a:	0e 94 c9 02 	call	0x592	; 0x592 <LCDByte>
    214e:	80 91 77 02 	lds	r24, 0x0277
    2152:	8f 5f       	subi	r24, 0xFF	; 255
    2154:	80 93 77 02 	sts	0x0277, r24
    2158:	2f c0       	rjmp	.+94     	; 0x21b8 <main+0xc0c>
							else{ bSelectionTime=0; LCD_CURSOR_LEFT_N(7); }
    215a:	10 92 77 02 	sts	0x0277, r1
    215e:	10 92 61 02 	sts	0x0261, r1
    2162:	10 92 62 02 	sts	0x0262, r1
    2166:	10 92 63 02 	sts	0x0263, r1
    216a:	10 92 64 02 	sts	0x0264, r1
    216e:	17 c0       	rjmp	.+46     	; 0x219e <main+0xbf2>
    2170:	80 e1       	ldi	r24, 0x10	; 16
    2172:	60 e0       	ldi	r22, 0x00	; 0
    2174:	0e 94 c9 02 	call	0x592	; 0x592 <LCDByte>
    2178:	80 91 61 02 	lds	r24, 0x0261
    217c:	90 91 62 02 	lds	r25, 0x0262
    2180:	a0 91 63 02 	lds	r26, 0x0263
    2184:	b0 91 64 02 	lds	r27, 0x0264
    2188:	01 96       	adiw	r24, 0x01	; 1
    218a:	a1 1d       	adc	r26, r1
    218c:	b1 1d       	adc	r27, r1
    218e:	80 93 61 02 	sts	0x0261, r24
    2192:	90 93 62 02 	sts	0x0262, r25
    2196:	a0 93 63 02 	sts	0x0263, r26
    219a:	b0 93 64 02 	sts	0x0264, r27
    219e:	80 91 61 02 	lds	r24, 0x0261
    21a2:	90 91 62 02 	lds	r25, 0x0262
    21a6:	a0 91 63 02 	lds	r26, 0x0263
    21aa:	b0 91 64 02 	lds	r27, 0x0264
    21ae:	87 30       	cpi	r24, 0x07	; 7
    21b0:	91 05       	cpc	r25, r1
    21b2:	a1 05       	cpc	r26, r1
    21b4:	b1 05       	cpc	r27, r1
    21b6:	e0 f2       	brcs	.-72     	; 0x2170 <main+0xbc4>
							if(bSelectionTime==2 || bSelectionTime==5){ LCDCmd(0x14); bSelectionTime++; }
    21b8:	80 91 77 02 	lds	r24, 0x0277
    21bc:	82 30       	cpi	r24, 0x02	; 2
    21be:	29 f0       	breq	.+10     	; 0x21ca <main+0xc1e>
    21c0:	80 91 77 02 	lds	r24, 0x0277
    21c4:	85 30       	cpi	r24, 0x05	; 5
    21c6:	09 f0       	breq	.+2      	; 0x21ca <main+0xc1e>
    21c8:	63 ca       	rjmp	.-2874   	; 0x1690 <main+0xe4>
    21ca:	84 e1       	ldi	r24, 0x14	; 20
    21cc:	60 e0       	ldi	r22, 0x00	; 0
    21ce:	0e 94 c9 02 	call	0x592	; 0x592 <LCDByte>
    21d2:	80 91 77 02 	lds	r24, 0x0277
    21d6:	8f 5f       	subi	r24, 0xFF	; 255
    21d8:	80 93 77 02 	sts	0x0277, r24
    21dc:	59 ca       	rjmp	.-2894   	; 0x1690 <main+0xe4>
							bBtn = NO_BTN;
							break;
						case BTN_C_LONG:
							bState=STATE_EDIT_TIME_CONFIRM;
    21de:	70 92 60 02 	sts	0x0260, r7
    21e2:	e2 c0       	rjmp	.+452    	; 0x23a8 <main+0xdfc>
					}
				break;

/*--------------------------------------------------------------------------------------------------*/
			case STATE_EDIT_TIME_CONFIRM:
					switch(bBtn){
    21e4:	80 91 c3 04 	lds	r24, 0x04C3
    21e8:	86 30       	cpi	r24, 0x06	; 6
    21ea:	09 f4       	brne	.+2      	; 0x21ee <main+0xc42>
    21ec:	b0 c0       	rjmp	.+352    	; 0x234e <main+0xda2>
    21ee:	87 30       	cpi	r24, 0x07	; 7
    21f0:	09 f4       	brne	.+2      	; 0x21f4 <main+0xc48>
    21f2:	b7 c0       	rjmp	.+366    	; 0x2362 <main+0xdb6>
    21f4:	88 23       	and	r24, r24
    21f6:	09 f0       	breq	.+2      	; 0x21fa <main+0xc4e>
    21f8:	16 ca       	rjmp	.-3028   	; 0x1626 <main+0x7a>
						case NO_BTN:
							if(bPrintQuotes){ 
    21fa:	80 91 01 03 	lds	r24, 0x0301
    21fe:	88 23       	and	r24, r24
    2200:	b9 f1       	breq	.+110    	; 0x2270 <main+0xcc4>
								LCDWriteStringXY(0,0, "Confermi? Si/No");
    2202:	80 e0       	ldi	r24, 0x00	; 0
    2204:	60 e0       	ldi	r22, 0x00	; 0
    2206:	46 e6       	ldi	r20, 0x66	; 102
    2208:	51 e0       	ldi	r21, 0x01	; 1
    220a:	0e 94 9d 03 	call	0x73a	; 0x73a <LCDWriteStringXY>
								LCD_CURSOR_LEFT_N(5);
    220e:	10 92 61 02 	sts	0x0261, r1
    2212:	10 92 62 02 	sts	0x0262, r1
    2216:	10 92 63 02 	sts	0x0263, r1
    221a:	10 92 64 02 	sts	0x0264, r1
    221e:	17 c0       	rjmp	.+46     	; 0x224e <main+0xca2>
    2220:	80 e1       	ldi	r24, 0x10	; 16
    2222:	60 e0       	ldi	r22, 0x00	; 0
    2224:	0e 94 c9 02 	call	0x592	; 0x592 <LCDByte>
    2228:	80 91 61 02 	lds	r24, 0x0261
    222c:	90 91 62 02 	lds	r25, 0x0262
    2230:	a0 91 63 02 	lds	r26, 0x0263
    2234:	b0 91 64 02 	lds	r27, 0x0264
    2238:	01 96       	adiw	r24, 0x01	; 1
    223a:	a1 1d       	adc	r26, r1
    223c:	b1 1d       	adc	r27, r1
    223e:	80 93 61 02 	sts	0x0261, r24
    2242:	90 93 62 02 	sts	0x0262, r25
    2246:	a0 93 63 02 	sts	0x0263, r26
    224a:	b0 93 64 02 	sts	0x0264, r27
    224e:	80 91 61 02 	lds	r24, 0x0261
    2252:	90 91 62 02 	lds	r25, 0x0262
    2256:	a0 91 63 02 	lds	r26, 0x0263
    225a:	b0 91 64 02 	lds	r27, 0x0264
    225e:	85 30       	cpi	r24, 0x05	; 5
    2260:	91 05       	cpc	r25, r1
    2262:	a1 05       	cpc	r26, r1
    2264:	b1 05       	cpc	r27, r1
    2266:	e0 f2       	brcs	.-72     	; 0x2220 <main+0xc74>
								bPrintQuotes=0;
    2268:	10 92 01 03 	sts	0x0301, r1
								bSelectionTime=0;
    226c:	10 92 77 02 	sts	0x0277, r1
							}
							if(bSelectionTimeChanged){
    2270:	80 91 74 02 	lds	r24, 0x0274
    2274:	88 23       	and	r24, r24
    2276:	09 f4       	brne	.+2      	; 0x227a <main+0xcce>
    2278:	d6 c9       	rjmp	.-3156   	; 0x1626 <main+0x7a>
								if(bSelectionTime==0){ LCD_SET_CURSOR_POSITION(10); }
    227a:	80 91 77 02 	lds	r24, 0x0277
    227e:	88 23       	and	r24, r24
    2280:	91 f5       	brne	.+100    	; 0x22e6 <main+0xd3a>
    2282:	82 e0       	ldi	r24, 0x02	; 2
    2284:	60 e0       	ldi	r22, 0x00	; 0
    2286:	0e 94 c9 02 	call	0x592	; 0x592 <LCDByte>
    228a:	10 92 61 02 	sts	0x0261, r1
    228e:	10 92 62 02 	sts	0x0262, r1
    2292:	10 92 63 02 	sts	0x0263, r1
    2296:	10 92 64 02 	sts	0x0264, r1
    229a:	17 c0       	rjmp	.+46     	; 0x22ca <main+0xd1e>
    229c:	84 e1       	ldi	r24, 0x14	; 20
    229e:	60 e0       	ldi	r22, 0x00	; 0
    22a0:	0e 94 c9 02 	call	0x592	; 0x592 <LCDByte>
    22a4:	80 91 61 02 	lds	r24, 0x0261
    22a8:	90 91 62 02 	lds	r25, 0x0262
    22ac:	a0 91 63 02 	lds	r26, 0x0263
    22b0:	b0 91 64 02 	lds	r27, 0x0264
    22b4:	01 96       	adiw	r24, 0x01	; 1
    22b6:	a1 1d       	adc	r26, r1
    22b8:	b1 1d       	adc	r27, r1
    22ba:	80 93 61 02 	sts	0x0261, r24
    22be:	90 93 62 02 	sts	0x0262, r25
    22c2:	a0 93 63 02 	sts	0x0263, r26
    22c6:	b0 93 64 02 	sts	0x0264, r27
    22ca:	80 91 61 02 	lds	r24, 0x0261
    22ce:	90 91 62 02 	lds	r25, 0x0262
    22d2:	a0 91 63 02 	lds	r26, 0x0263
    22d6:	b0 91 64 02 	lds	r27, 0x0264
    22da:	8a 30       	cpi	r24, 0x0A	; 10
    22dc:	91 05       	cpc	r25, r1
    22de:	a1 05       	cpc	r26, r1
    22e0:	b1 05       	cpc	r27, r1
    22e2:	e0 f2       	brcs	.-72     	; 0x229c <main+0xcf0>
    22e4:	31 c0       	rjmp	.+98     	; 0x2348 <main+0xd9c>
								else{ LCD_SET_CURSOR_POSITION(13); }
    22e6:	82 e0       	ldi	r24, 0x02	; 2
    22e8:	60 e0       	ldi	r22, 0x00	; 0
    22ea:	0e 94 c9 02 	call	0x592	; 0x592 <LCDByte>
    22ee:	10 92 61 02 	sts	0x0261, r1
    22f2:	10 92 62 02 	sts	0x0262, r1
    22f6:	10 92 63 02 	sts	0x0263, r1
    22fa:	10 92 64 02 	sts	0x0264, r1
    22fe:	17 c0       	rjmp	.+46     	; 0x232e <main+0xd82>
    2300:	84 e1       	ldi	r24, 0x14	; 20
    2302:	60 e0       	ldi	r22, 0x00	; 0
    2304:	0e 94 c9 02 	call	0x592	; 0x592 <LCDByte>
    2308:	80 91 61 02 	lds	r24, 0x0261
    230c:	90 91 62 02 	lds	r25, 0x0262
    2310:	a0 91 63 02 	lds	r26, 0x0263
    2314:	b0 91 64 02 	lds	r27, 0x0264
    2318:	01 96       	adiw	r24, 0x01	; 1
    231a:	a1 1d       	adc	r26, r1
    231c:	b1 1d       	adc	r27, r1
    231e:	80 93 61 02 	sts	0x0261, r24
    2322:	90 93 62 02 	sts	0x0262, r25
    2326:	a0 93 63 02 	sts	0x0263, r26
    232a:	b0 93 64 02 	sts	0x0264, r27
    232e:	80 91 61 02 	lds	r24, 0x0261
    2332:	90 91 62 02 	lds	r25, 0x0262
    2336:	a0 91 63 02 	lds	r26, 0x0263
    233a:	b0 91 64 02 	lds	r27, 0x0264
    233e:	8d 30       	cpi	r24, 0x0D	; 13
    2340:	91 05       	cpc	r25, r1
    2342:	a1 05       	cpc	r26, r1
    2344:	b1 05       	cpc	r27, r1
    2346:	e0 f2       	brcs	.-72     	; 0x2300 <main+0xd54>
								bSelectionTimeChanged=0;
    2348:	10 92 74 02 	sts	0x0274, r1
    234c:	6c c9       	rjmp	.-3368   	; 0x1626 <main+0x7a>
							}
							break;
						
						case BTN_C:
							bSelectionTime = (bSelectionTime == 0)?1:0;
    234e:	90 91 77 02 	lds	r25, 0x0277
    2352:	81 e0       	ldi	r24, 0x01	; 1
    2354:	91 11       	cpse	r25, r1
    2356:	80 e0       	ldi	r24, 0x00	; 0
    2358:	80 93 77 02 	sts	0x0277, r24
							bSelectionTimeChanged=1;
    235c:	f0 92 74 02 	sts	0x0274, r15
    2360:	97 c9       	rjmp	.-3282   	; 0x1690 <main+0xe4>
							bBtn=NO_BTN;
							break;
						
						case BTN_C_LONG:
							if(bSelectionTime){
    2362:	80 91 77 02 	lds	r24, 0x0277
    2366:	88 23       	and	r24, r24
    2368:	29 f0       	breq	.+10     	; 0x2374 <main+0xdc8>
								bState = STATE_MENU;
    236a:	f0 92 60 02 	sts	0x0260, r15
								bSelectionTime=0;
    236e:	10 92 77 02 	sts	0x0277, r1
    2372:	1a c0       	rjmp	.+52     	; 0x23a8 <main+0xdfc>
							}else{
								tTime.bSec = tTimeEditing.bSec;
    2374:	80 91 a7 04 	lds	r24, 0x04A7
    2378:	80 93 f7 02 	sts	0x02F7, r24
								tTime.bMin = tTimeEditing.bMin;
    237c:	80 91 a8 04 	lds	r24, 0x04A8
    2380:	80 93 f8 02 	sts	0x02F8, r24
								tTime.bHour = tTimeEditing.bHour;
    2384:	80 91 a9 04 	lds	r24, 0x04A9
    2388:	80 93 f9 02 	sts	0x02F9, r24
								bState = STATE_MENU;
    238c:	f0 92 60 02 	sts	0x0260, r15
								LCD_RESET();
    2390:	81 e0       	ldi	r24, 0x01	; 1
    2392:	60 e0       	ldi	r22, 0x00	; 0
    2394:	0e 94 c9 02 	call	0x592	; 0x592 <LCDByte>
    2398:	82 e0       	ldi	r24, 0x02	; 2
    239a:	60 e0       	ldi	r22, 0x00	; 0
    239c:	0e 94 c9 02 	call	0x592	; 0x592 <LCDByte>
    23a0:	8c e0       	ldi	r24, 0x0C	; 12
    23a2:	60 e0       	ldi	r22, 0x00	; 0
    23a4:	0e 94 c9 02 	call	0x592	; 0x592 <LCDByte>
							}
							bBtn = NO_BTN;
    23a8:	10 92 c3 04 	sts	0x04C3, r1
							bPrintQuotes=1;
    23ac:	f0 92 01 03 	sts	0x0301, r15
							break;
    23b0:	3a c9       	rjmp	.-3468   	; 0x1626 <main+0x7a>
					}
				break;
				
/*--------------------------------------------------------------------------------------------------*/
			case STATE_EDIT_TIMEZONE:
				switch(bBtn){
    23b2:	80 91 c3 04 	lds	r24, 0x04C3
    23b6:	88 23       	and	r24, r24
    23b8:	09 f0       	breq	.+2      	; 0x23bc <main+0xe10>
    23ba:	35 c9       	rjmp	.-3478   	; 0x1626 <main+0x7a>
					case NO_BTN:
						if(bPrintQuotes){
    23bc:	80 91 01 03 	lds	r24, 0x0301
    23c0:	88 23       	and	r24, r24
    23c2:	09 f4       	brne	.+2      	; 0x23c6 <main+0xe1a>
    23c4:	30 c9       	rjmp	.-3488   	; 0x1626 <main+0x7a>
							bPrintQuotes=0;
    23c6:	10 92 01 03 	sts	0x0301, r1
							LCDClear();
    23ca:	81 e0       	ldi	r24, 0x01	; 1
    23cc:	60 e0       	ldi	r22, 0x00	; 0
    23ce:	0e 94 c9 02 	call	0x592	; 0x592 <LCDByte>
							LCDWriteStringXY(0,0, "Edit timezone:");
    23d2:	80 e0       	ldi	r24, 0x00	; 0
    23d4:	60 e0       	ldi	r22, 0x00	; 0
    23d6:	43 e9       	ldi	r20, 0x93	; 147
    23d8:	51 e0       	ldi	r21, 0x01	; 1
    23da:	0e 94 9d 03 	call	0x73a	; 0x73a <LCDWriteStringXY>
							LCDWriteStringXY(0,1,"1=");
    23de:	80 e0       	ldi	r24, 0x00	; 0
    23e0:	61 e0       	ldi	r22, 0x01	; 1
    23e2:	42 ea       	ldi	r20, 0xA2	; 162
    23e4:	51 e0       	ldi	r21, 0x01	; 1
    23e6:	0e 94 9d 03 	call	0x73a	; 0x73a <LCDWriteStringXY>
    23ea:	1d c9       	rjmp	.-3526   	; 0x1626 <main+0x7a>

000023ec <_round>:
		LCDWriteStringXY(CLOCK_CURSOR_POSITION+2, 0, " ");
		bTimeCommaState=1;
	}
}

int _round(double x){
    23ec:	ef 92       	push	r14
    23ee:	ff 92       	push	r15
    23f0:	0f 93       	push	r16
    23f2:	1f 93       	push	r17
    23f4:	cf 93       	push	r28
    23f6:	df 93       	push	r29
    23f8:	7b 01       	movw	r14, r22
    23fa:	8c 01       	movw	r16, r24
	if((x-((int)x))>0.5) return ((int)x)+1;
    23fc:	0e 94 ec 17 	call	0x2fd8	; 0x2fd8 <__fixsfsi>
    2400:	eb 01       	movw	r28, r22
    2402:	be 01       	movw	r22, r28
    2404:	88 27       	eor	r24, r24
    2406:	77 fd       	sbrc	r23, 7
    2408:	80 95       	com	r24
    240a:	98 2f       	mov	r25, r24
    240c:	0e 94 1f 18 	call	0x303e	; 0x303e <__floatsisf>
    2410:	9b 01       	movw	r18, r22
    2412:	ac 01       	movw	r20, r24
    2414:	c8 01       	movw	r24, r16
    2416:	b7 01       	movw	r22, r14
    2418:	0e 94 1f 17 	call	0x2e3e	; 0x2e3e <__subsf3>
    241c:	20 e0       	ldi	r18, 0x00	; 0
    241e:	30 e0       	ldi	r19, 0x00	; 0
    2420:	40 e0       	ldi	r20, 0x00	; 0
    2422:	5f e3       	ldi	r21, 0x3F	; 63
    2424:	0e 94 ab 18 	call	0x3156	; 0x3156 <__gesf2>
    2428:	18 16       	cp	r1, r24
    242a:	0c f4       	brge	.+2      	; 0x242e <_round+0x42>
    242c:	21 96       	adiw	r28, 0x01	; 1
	else return (int)x;
}
    242e:	ce 01       	movw	r24, r28
    2430:	df 91       	pop	r29
    2432:	cf 91       	pop	r28
    2434:	1f 91       	pop	r17
    2436:	0f 91       	pop	r16
    2438:	ff 90       	pop	r15
    243a:	ef 90       	pop	r14
    243c:	08 95       	ret

0000243e <getHumidity>:
	temp = (dRpt-RPT0) / K_Rpt;						// Linearization of PT100
	
	return temp;
}

byte getHumidity(double temperature){
    243e:	af 92       	push	r10
    2440:	bf 92       	push	r11
    2442:	cf 92       	push	r12
    2444:	df 92       	push	r13
    2446:	ef 92       	push	r14
    2448:	ff 92       	push	r15
    244a:	0f 93       	push	r16
    244c:	1f 93       	push	r17
    244e:	7b 01       	movw	r14, r22
    2450:	8c 01       	movw	r16, r24
	//double dAD
	//double dVout
	//double dRH
	//double dRH_comp
	
	dAD = ADC;
    2452:	64 b1       	in	r22, 0x04	; 4
    2454:	75 b1       	in	r23, 0x05	; 5
    2456:	80 e0       	ldi	r24, 0x00	; 0
    2458:	90 e0       	ldi	r25, 0x00	; 0
    245a:	0e 94 1d 18 	call	0x303a	; 0x303a <__floatunsisf>
    245e:	60 93 bf 04 	sts	0x04BF, r22
    2462:	70 93 c0 04 	sts	0x04C0, r23
    2466:	80 93 c1 04 	sts	0x04C1, r24
    246a:	90 93 c2 04 	sts	0x04C2, r25
	dVout = 5*(dAD/1024);
    246e:	60 91 bf 04 	lds	r22, 0x04BF
    2472:	70 91 c0 04 	lds	r23, 0x04C0
    2476:	80 91 c1 04 	lds	r24, 0x04C1
    247a:	90 91 c2 04 	lds	r25, 0x04C2
    247e:	20 e0       	ldi	r18, 0x00	; 0
    2480:	30 e0       	ldi	r19, 0x00	; 0
    2482:	40 e8       	ldi	r20, 0x80	; 128
    2484:	5a e3       	ldi	r21, 0x3A	; 58
    2486:	0e 94 af 18 	call	0x315e	; 0x315e <__mulsf3>
    248a:	20 e0       	ldi	r18, 0x00	; 0
    248c:	30 e0       	ldi	r19, 0x00	; 0
    248e:	40 ea       	ldi	r20, 0xA0	; 160
    2490:	50 e4       	ldi	r21, 0x40	; 64
    2492:	0e 94 af 18 	call	0x315e	; 0x315e <__mulsf3>
    2496:	9b 01       	movw	r18, r22
    2498:	ac 01       	movw	r20, r24
    249a:	20 93 b3 04 	sts	0x04B3, r18
    249e:	30 93 b4 04 	sts	0x04B4, r19
    24a2:	40 93 b5 04 	sts	0x04B5, r20
    24a6:	50 93 b6 04 	sts	0x04B6, r21
	dRH = (dVout - 0.16*VREF)/(VREF*0.0062);					// Formulas given by the datasheet of HIH-4030
    24aa:	60 91 b3 04 	lds	r22, 0x04B3
    24ae:	70 91 b4 04 	lds	r23, 0x04B4
    24b2:	80 91 b5 04 	lds	r24, 0x04B5
    24b6:	90 91 b6 04 	lds	r25, 0x04B6
    24ba:	2c ec       	ldi	r18, 0xCC	; 204
    24bc:	3c ec       	ldi	r19, 0xCC	; 204
    24be:	4c e4       	ldi	r20, 0x4C	; 76
    24c0:	5f e3       	ldi	r21, 0x3F	; 63
    24c2:	0e 94 1f 17 	call	0x2e3e	; 0x2e3e <__subsf3>
    24c6:	27 eb       	ldi	r18, 0xB7	; 183
    24c8:	33 ef       	ldi	r19, 0xF3	; 243
    24ca:	4d ef       	ldi	r20, 0xFD	; 253
    24cc:	5c e3       	ldi	r21, 0x3C	; 60
    24ce:	0e 94 84 17 	call	0x2f08	; 0x2f08 <__divsf3>
    24d2:	9b 01       	movw	r18, r22
    24d4:	ac 01       	movw	r20, r24
    24d6:	20 93 eb 02 	sts	0x02EB, r18
    24da:	30 93 ec 02 	sts	0x02EC, r19
    24de:	40 93 ed 02 	sts	0x02ED, r20
    24e2:	50 93 ee 02 	sts	0x02EE, r21
	dRH_comp = dRH/(1.0546-0.00216*(_round(temperature)));		//
    24e6:	a0 90 eb 02 	lds	r10, 0x02EB
    24ea:	b0 90 ec 02 	lds	r11, 0x02EC
    24ee:	c0 90 ed 02 	lds	r12, 0x02ED
    24f2:	d0 90 ee 02 	lds	r13, 0x02EE
    24f6:	c8 01       	movw	r24, r16
    24f8:	b7 01       	movw	r22, r14
    24fa:	0e 94 f6 11 	call	0x23ec	; 0x23ec <_round>
    24fe:	9c 01       	movw	r18, r24
    2500:	b9 01       	movw	r22, r18
    2502:	88 27       	eor	r24, r24
    2504:	77 fd       	sbrc	r23, 7
    2506:	80 95       	com	r24
    2508:	98 2f       	mov	r25, r24
    250a:	0e 94 1f 18 	call	0x303e	; 0x303e <__floatsisf>
    250e:	29 ec       	ldi	r18, 0xC9	; 201
    2510:	3e e8       	ldi	r19, 0x8E	; 142
    2512:	4d e0       	ldi	r20, 0x0D	; 13
    2514:	5b e3       	ldi	r21, 0x3B	; 59
    2516:	0e 94 af 18 	call	0x315e	; 0x315e <__mulsf3>
    251a:	9b 01       	movw	r18, r22
    251c:	ac 01       	movw	r20, r24
    251e:	62 e2       	ldi	r22, 0x22	; 34
    2520:	7d ef       	ldi	r23, 0xFD	; 253
    2522:	86 e8       	ldi	r24, 0x86	; 134
    2524:	9f e3       	ldi	r25, 0x3F	; 63
    2526:	0e 94 1f 17 	call	0x2e3e	; 0x2e3e <__subsf3>
    252a:	9b 01       	movw	r18, r22
    252c:	ac 01       	movw	r20, r24
    252e:	c6 01       	movw	r24, r12
    2530:	b5 01       	movw	r22, r10
    2532:	0e 94 84 17 	call	0x2f08	; 0x2f08 <__divsf3>
    2536:	9b 01       	movw	r18, r22
    2538:	ac 01       	movw	r20, r24
    253a:	20 93 f1 02 	sts	0x02F1, r18
    253e:	30 93 f2 02 	sts	0x02F2, r19
    2542:	40 93 f3 02 	sts	0x02F3, r20
    2546:	50 93 f4 02 	sts	0x02F4, r21
	return _round(dRH_comp);
    254a:	60 91 f1 02 	lds	r22, 0x02F1
    254e:	70 91 f2 02 	lds	r23, 0x02F2
    2552:	80 91 f3 02 	lds	r24, 0x02F3
    2556:	90 91 f4 02 	lds	r25, 0x02F4
    255a:	0e 94 f6 11 	call	0x23ec	; 0x23ec <_round>
}
    255e:	1f 91       	pop	r17
    2560:	0f 91       	pop	r16
    2562:	ff 90       	pop	r15
    2564:	ef 90       	pop	r14
    2566:	df 90       	pop	r13
    2568:	cf 90       	pop	r12
    256a:	bf 90       	pop	r11
    256c:	af 90       	pop	r10
    256e:	08 95       	ret

00002570 <__vector_21>:
	
	bPriLev = bOldPriLev;
}	

/****************************  ADC Interrupt ******************************/
ISR(ADC_vect){
    2570:	1f 92       	push	r1
    2572:	0f 92       	push	r0
    2574:	0f b6       	in	r0, 0x3f	; 63
    2576:	0f 92       	push	r0
    2578:	0b b6       	in	r0, 0x3b	; 59
    257a:	0f 92       	push	r0
    257c:	11 24       	eor	r1, r1
    257e:	0f 93       	push	r16
    2580:	1f 93       	push	r17
    2582:	2f 93       	push	r18
    2584:	3f 93       	push	r19
    2586:	4f 93       	push	r20
    2588:	5f 93       	push	r21
    258a:	6f 93       	push	r22
    258c:	7f 93       	push	r23
    258e:	8f 93       	push	r24
    2590:	9f 93       	push	r25
    2592:	af 93       	push	r26
    2594:	bf 93       	push	r27
    2596:	cf 93       	push	r28
    2598:	df 93       	push	r29
    259a:	ef 93       	push	r30
    259c:	ff 93       	push	r31
	if(bPriLev<PRI_ADC) return;
    259e:	80 91 fe 02 	lds	r24, 0x02FE
    25a2:	82 30       	cpi	r24, 0x02	; 2
    25a4:	08 f4       	brcc	.+2      	; 0x25a8 <__vector_21+0x38>
    25a6:	85 c0       	rjmp	.+266    	; 0x26b2 <__vector_21+0x142>
	byte bOldPriLev = bPriLev;
    25a8:	10 91 fe 02 	lds	r17, 0x02FE
	
	sreg = MCUSR;	// float operations: avoid interrupts to make operations reliable
    25ac:	84 b7       	in	r24, 0x34	; 52
    25ae:	80 93 b2 04 	sts	0x04B2, r24
	cli();
    25b2:	f8 94       	cli
	
	if(wADC_garbage < NUMBER_OF_GARBAGE){	// some of the values are not considered
    25b4:	80 91 78 02 	lds	r24, 0x0278
    25b8:	90 91 79 02 	lds	r25, 0x0279
    25bc:	84 31       	cpi	r24, 0x14	; 20
    25be:	91 05       	cpc	r25, r1
    25c0:	50 f4       	brcc	.+20     	; 0x25d6 <__vector_21+0x66>
		wADC_garbage++;
    25c2:	80 91 78 02 	lds	r24, 0x0278
    25c6:	90 91 79 02 	lds	r25, 0x0279
    25ca:	01 96       	adiw	r24, 0x01	; 1
    25cc:	90 93 79 02 	sts	0x0279, r25
    25d0:	80 93 78 02 	sts	0x0278, r24
    25d4:	68 c0       	rjmp	.+208    	; 0x26a6 <__vector_21+0x136>
	}else{
		wADC_garbage=0;
    25d6:	10 92 79 02 	sts	0x0279, r1
    25da:	10 92 78 02 	sts	0x0278, r1
		if(wADC_counts<NUMBER_OF_CONVERSIONS){	//wadcounts++
    25de:	80 91 72 02 	lds	r24, 0x0272
    25e2:	90 91 73 02 	lds	r25, 0x0273
    25e6:	84 36       	cpi	r24, 0x64	; 100
    25e8:	91 05       	cpc	r25, r1
    25ea:	90 f5       	brcc	.+100    	; 0x2650 <__vector_21+0xe0>
			switch(bChannel){
    25ec:	80 91 ad 04 	lds	r24, 0x04AD
    25f0:	88 23       	and	r24, r24
    25f2:	21 f0       	breq	.+8      	; 0x25fc <__vector_21+0x8c>
    25f4:	81 30       	cpi	r24, 0x01	; 1
    25f6:	09 f0       	breq	.+2      	; 0x25fa <__vector_21+0x8a>
    25f8:	56 c0       	rjmp	.+172    	; 0x26a6 <__vector_21+0x136>
    25fa:	12 c0       	rjmp	.+36     	; 0x2620 <__vector_21+0xb0>
				case TEMPERATURE:
					adTemperature[wADC_counts++]=getTemperature();
    25fc:	c0 91 72 02 	lds	r28, 0x0272
    2600:	d0 91 73 02 	lds	r29, 0x0273
    2604:	0e 94 be 07 	call	0xf7c	; 0xf7c <getTemperature>
    2608:	fe 01       	movw	r30, r28
    260a:	ee 0f       	add	r30, r30
    260c:	ff 1f       	adc	r31, r31
    260e:	ee 0f       	add	r30, r30
    2610:	ff 1f       	adc	r31, r31
    2612:	ee 5f       	subi	r30, 0xFE	; 254
    2614:	fc 4f       	sbci	r31, 0xFC	; 252
    2616:	60 83       	st	Z, r22
    2618:	71 83       	std	Z+1, r23	; 0x01
    261a:	82 83       	std	Z+2, r24	; 0x02
    261c:	93 83       	std	Z+3, r25	; 0x03
    261e:	12 c0       	rjmp	.+36     	; 0x2644 <__vector_21+0xd4>
					break;
				case HUMIDITY:
					adHumidity[wADC_counts++]=getHumidity(dTemperature);
    2620:	c0 91 72 02 	lds	r28, 0x0272
    2624:	d0 91 73 02 	lds	r29, 0x0273
    2628:	60 91 c4 04 	lds	r22, 0x04C4
    262c:	70 91 c5 04 	lds	r23, 0x04C5
    2630:	80 91 c6 04 	lds	r24, 0x04C6
    2634:	90 91 c7 04 	lds	r25, 0x04C7
    2638:	0e 94 1f 12 	call	0x243e	; 0x243e <getHumidity>
    263c:	fe 01       	movw	r30, r28
    263e:	ed 57       	subi	r30, 0x7D	; 125
    2640:	fd 4f       	sbci	r31, 0xFD	; 253
    2642:	80 83       	st	Z, r24
    2644:	21 96       	adiw	r28, 0x01	; 1
    2646:	d0 93 73 02 	sts	0x0273, r29
    264a:	c0 93 72 02 	sts	0x0272, r28
					break;
    264e:	2b c0       	rjmp	.+86     	; 0x26a6 <__vector_21+0x136>
				default: break;
			}
		}else{
			wADC_counts=0;
    2650:	10 92 73 02 	sts	0x0273, r1
    2654:	10 92 72 02 	sts	0x0272, r1
			switch(bChannel){
    2658:	00 91 ad 04 	lds	r16, 0x04AD
    265c:	00 23       	and	r16, r16
    265e:	19 f0       	breq	.+6      	; 0x2666 <__vector_21+0xf6>
    2660:	01 30       	cpi	r16, 0x01	; 1
    2662:	f9 f4       	brne	.+62     	; 0x26a2 <__vector_21+0x132>
    2664:	12 c0       	rjmp	.+36     	; 0x268a <__vector_21+0x11a>
				case TEMPERATURE:
					dTemperature=ADC_average(adTemperature, NULL);
    2666:	82 e0       	ldi	r24, 0x02	; 2
    2668:	93 e0       	ldi	r25, 0x03	; 3
    266a:	60 e0       	ldi	r22, 0x00	; 0
    266c:	70 e0       	ldi	r23, 0x00	; 0
    266e:	0e 94 4f 08 	call	0x109e	; 0x109e <ADC_average>
    2672:	60 93 c4 04 	sts	0x04C4, r22
    2676:	70 93 c5 04 	sts	0x04C5, r23
    267a:	80 93 c6 04 	sts	0x04C6, r24
    267e:	90 93 c7 04 	sts	0x04C7, r25
					bTempChanged=1;
    2682:	81 e0       	ldi	r24, 0x01	; 1
    2684:	80 93 ea 02 	sts	0x02EA, r24
					break;
    2688:	0c c0       	rjmp	.+24     	; 0x26a2 <__vector_21+0x132>
				case HUMIDITY:
					bHumidity = _round(ADC_average(NULL, adHumidity));
    268a:	80 e0       	ldi	r24, 0x00	; 0
    268c:	90 e0       	ldi	r25, 0x00	; 0
    268e:	63 e8       	ldi	r22, 0x83	; 131
    2690:	72 e0       	ldi	r23, 0x02	; 2
    2692:	0e 94 4f 08 	call	0x109e	; 0x109e <ADC_average>
    2696:	0e 94 f6 11 	call	0x23ec	; 0x23ec <_round>
    269a:	80 93 65 02 	sts	0x0265, r24
					bHumChanged=1;
    269e:	00 93 e8 02 	sts	0x02E8, r16
					break;
				default: break;
			}
			multiplexADChannel();
    26a2:	0e 94 3b 08 	call	0x1076	; 0x1076 <multiplexADChannel>
		}
	}
	
	sei();
    26a6:	78 94       	sei
	MCUSR=sreg;
    26a8:	80 91 b2 04 	lds	r24, 0x04B2
    26ac:	84 bf       	out	0x34, r24	; 52
	
	bPriLev = bOldPriLev;
    26ae:	10 93 fe 02 	sts	0x02FE, r17
}
    26b2:	ff 91       	pop	r31
    26b4:	ef 91       	pop	r30
    26b6:	df 91       	pop	r29
    26b8:	cf 91       	pop	r28
    26ba:	bf 91       	pop	r27
    26bc:	af 91       	pop	r26
    26be:	9f 91       	pop	r25
    26c0:	8f 91       	pop	r24
    26c2:	7f 91       	pop	r23
    26c4:	6f 91       	pop	r22
    26c6:	5f 91       	pop	r21
    26c8:	4f 91       	pop	r20
    26ca:	3f 91       	pop	r19
    26cc:	2f 91       	pop	r18
    26ce:	1f 91       	pop	r17
    26d0:	0f 91       	pop	r16
    26d2:	0f 90       	pop	r0
    26d4:	0b be       	out	0x3b, r0	; 59
    26d6:	0f 90       	pop	r0
    26d8:	0f be       	out	0x3f, r0	; 63
    26da:	0f 90       	pop	r0
    26dc:	1f 90       	pop	r1
    26de:	18 95       	reti

000026e0 <vfprintf>:
    26e0:	2f 92       	push	r2
    26e2:	3f 92       	push	r3
    26e4:	4f 92       	push	r4
    26e6:	5f 92       	push	r5
    26e8:	6f 92       	push	r6
    26ea:	7f 92       	push	r7
    26ec:	8f 92       	push	r8
    26ee:	9f 92       	push	r9
    26f0:	af 92       	push	r10
    26f2:	bf 92       	push	r11
    26f4:	cf 92       	push	r12
    26f6:	df 92       	push	r13
    26f8:	ef 92       	push	r14
    26fa:	ff 92       	push	r15
    26fc:	0f 93       	push	r16
    26fe:	1f 93       	push	r17
    2700:	df 93       	push	r29
    2702:	cf 93       	push	r28
    2704:	cd b7       	in	r28, 0x3d	; 61
    2706:	de b7       	in	r29, 0x3e	; 62
    2708:	63 97       	sbiw	r28, 0x13	; 19
    270a:	0f b6       	in	r0, 0x3f	; 63
    270c:	f8 94       	cli
    270e:	de bf       	out	0x3e, r29	; 62
    2710:	0f be       	out	0x3f, r0	; 63
    2712:	cd bf       	out	0x3d, r28	; 61
    2714:	6c 01       	movw	r12, r24
    2716:	7f 87       	std	Y+15, r23	; 0x0f
    2718:	6e 87       	std	Y+14, r22	; 0x0e
    271a:	fc 01       	movw	r30, r24
    271c:	17 82       	std	Z+7, r1	; 0x07
    271e:	16 82       	std	Z+6, r1	; 0x06
    2720:	83 81       	ldd	r24, Z+3	; 0x03
    2722:	81 fd       	sbrc	r24, 1
    2724:	04 c0       	rjmp	.+8      	; 0x272e <vfprintf+0x4e>
    2726:	6f c3       	rjmp	.+1758   	; 0x2e06 <vfprintf+0x726>
    2728:	4c 85       	ldd	r20, Y+12	; 0x0c
    272a:	5d 85       	ldd	r21, Y+13	; 0x0d
    272c:	04 c0       	rjmp	.+8      	; 0x2736 <vfprintf+0x56>
    272e:	1e 01       	movw	r2, r28
    2730:	08 94       	sec
    2732:	21 1c       	adc	r2, r1
    2734:	31 1c       	adc	r3, r1
    2736:	f6 01       	movw	r30, r12
    2738:	93 81       	ldd	r25, Z+3	; 0x03
    273a:	ee 85       	ldd	r30, Y+14	; 0x0e
    273c:	ff 85       	ldd	r31, Y+15	; 0x0f
    273e:	93 fd       	sbrc	r25, 3
    2740:	85 91       	lpm	r24, Z+
    2742:	93 ff       	sbrs	r25, 3
    2744:	81 91       	ld	r24, Z+
    2746:	ff 87       	std	Y+15, r31	; 0x0f
    2748:	ee 87       	std	Y+14, r30	; 0x0e
    274a:	88 23       	and	r24, r24
    274c:	09 f4       	brne	.+2      	; 0x2750 <vfprintf+0x70>
    274e:	57 c3       	rjmp	.+1710   	; 0x2dfe <vfprintf+0x71e>
    2750:	85 32       	cpi	r24, 0x25	; 37
    2752:	41 f4       	brne	.+16     	; 0x2764 <vfprintf+0x84>
    2754:	93 fd       	sbrc	r25, 3
    2756:	85 91       	lpm	r24, Z+
    2758:	93 ff       	sbrs	r25, 3
    275a:	81 91       	ld	r24, Z+
    275c:	ff 87       	std	Y+15, r31	; 0x0f
    275e:	ee 87       	std	Y+14, r30	; 0x0e
    2760:	85 32       	cpi	r24, 0x25	; 37
    2762:	59 f4       	brne	.+22     	; 0x277a <vfprintf+0x9a>
    2764:	90 e0       	ldi	r25, 0x00	; 0
    2766:	b6 01       	movw	r22, r12
    2768:	4a 8b       	std	Y+18, r20	; 0x12
    276a:	5b 8b       	std	Y+19, r21	; 0x13
    276c:	0e 94 57 1a 	call	0x34ae	; 0x34ae <fputc>
    2770:	4a 89       	ldd	r20, Y+18	; 0x12
    2772:	5b 89       	ldd	r21, Y+19	; 0x13
    2774:	5d 87       	std	Y+13, r21	; 0x0d
    2776:	4c 87       	std	Y+12, r20	; 0x0c
    2778:	d7 cf       	rjmp	.-82     	; 0x2728 <vfprintf+0x48>
    277a:	10 e0       	ldi	r17, 0x00	; 0
    277c:	ff 24       	eor	r15, r15
    277e:	00 e0       	ldi	r16, 0x00	; 0
    2780:	00 32       	cpi	r16, 0x20	; 32
    2782:	b0 f4       	brcc	.+44     	; 0x27b0 <vfprintf+0xd0>
    2784:	8b 32       	cpi	r24, 0x2B	; 43
    2786:	69 f0       	breq	.+26     	; 0x27a2 <vfprintf+0xc2>
    2788:	8c 32       	cpi	r24, 0x2C	; 44
    278a:	28 f4       	brcc	.+10     	; 0x2796 <vfprintf+0xb6>
    278c:	80 32       	cpi	r24, 0x20	; 32
    278e:	51 f0       	breq	.+20     	; 0x27a4 <vfprintf+0xc4>
    2790:	83 32       	cpi	r24, 0x23	; 35
    2792:	71 f4       	brne	.+28     	; 0x27b0 <vfprintf+0xd0>
    2794:	0b c0       	rjmp	.+22     	; 0x27ac <vfprintf+0xcc>
    2796:	8d 32       	cpi	r24, 0x2D	; 45
    2798:	39 f0       	breq	.+14     	; 0x27a8 <vfprintf+0xc8>
    279a:	80 33       	cpi	r24, 0x30	; 48
    279c:	49 f4       	brne	.+18     	; 0x27b0 <vfprintf+0xd0>
    279e:	01 60       	ori	r16, 0x01	; 1
    27a0:	2c c0       	rjmp	.+88     	; 0x27fa <vfprintf+0x11a>
    27a2:	02 60       	ori	r16, 0x02	; 2
    27a4:	04 60       	ori	r16, 0x04	; 4
    27a6:	29 c0       	rjmp	.+82     	; 0x27fa <vfprintf+0x11a>
    27a8:	08 60       	ori	r16, 0x08	; 8
    27aa:	27 c0       	rjmp	.+78     	; 0x27fa <vfprintf+0x11a>
    27ac:	00 61       	ori	r16, 0x10	; 16
    27ae:	25 c0       	rjmp	.+74     	; 0x27fa <vfprintf+0x11a>
    27b0:	07 fd       	sbrc	r16, 7
    27b2:	2e c0       	rjmp	.+92     	; 0x2810 <vfprintf+0x130>
    27b4:	28 2f       	mov	r18, r24
    27b6:	20 53       	subi	r18, 0x30	; 48
    27b8:	2a 30       	cpi	r18, 0x0A	; 10
    27ba:	98 f4       	brcc	.+38     	; 0x27e2 <vfprintf+0x102>
    27bc:	06 ff       	sbrs	r16, 6
    27be:	08 c0       	rjmp	.+16     	; 0x27d0 <vfprintf+0xf0>
    27c0:	81 2f       	mov	r24, r17
    27c2:	88 0f       	add	r24, r24
    27c4:	18 2f       	mov	r17, r24
    27c6:	11 0f       	add	r17, r17
    27c8:	11 0f       	add	r17, r17
    27ca:	18 0f       	add	r17, r24
    27cc:	12 0f       	add	r17, r18
    27ce:	15 c0       	rjmp	.+42     	; 0x27fa <vfprintf+0x11a>
    27d0:	8f 2d       	mov	r24, r15
    27d2:	88 0f       	add	r24, r24
    27d4:	f8 2e       	mov	r15, r24
    27d6:	ff 0c       	add	r15, r15
    27d8:	ff 0c       	add	r15, r15
    27da:	f8 0e       	add	r15, r24
    27dc:	f2 0e       	add	r15, r18
    27de:	00 62       	ori	r16, 0x20	; 32
    27e0:	0c c0       	rjmp	.+24     	; 0x27fa <vfprintf+0x11a>
    27e2:	8e 32       	cpi	r24, 0x2E	; 46
    27e4:	21 f4       	brne	.+8      	; 0x27ee <vfprintf+0x10e>
    27e6:	06 fd       	sbrc	r16, 6
    27e8:	0a c3       	rjmp	.+1556   	; 0x2dfe <vfprintf+0x71e>
    27ea:	00 64       	ori	r16, 0x40	; 64
    27ec:	06 c0       	rjmp	.+12     	; 0x27fa <vfprintf+0x11a>
    27ee:	8c 36       	cpi	r24, 0x6C	; 108
    27f0:	11 f4       	brne	.+4      	; 0x27f6 <vfprintf+0x116>
    27f2:	00 68       	ori	r16, 0x80	; 128
    27f4:	02 c0       	rjmp	.+4      	; 0x27fa <vfprintf+0x11a>
    27f6:	88 36       	cpi	r24, 0x68	; 104
    27f8:	59 f4       	brne	.+22     	; 0x2810 <vfprintf+0x130>
    27fa:	ee 85       	ldd	r30, Y+14	; 0x0e
    27fc:	ff 85       	ldd	r31, Y+15	; 0x0f
    27fe:	93 fd       	sbrc	r25, 3
    2800:	85 91       	lpm	r24, Z+
    2802:	93 ff       	sbrs	r25, 3
    2804:	81 91       	ld	r24, Z+
    2806:	ff 87       	std	Y+15, r31	; 0x0f
    2808:	ee 87       	std	Y+14, r30	; 0x0e
    280a:	88 23       	and	r24, r24
    280c:	09 f0       	breq	.+2      	; 0x2810 <vfprintf+0x130>
    280e:	b8 cf       	rjmp	.-144    	; 0x2780 <vfprintf+0xa0>
    2810:	98 2f       	mov	r25, r24
    2812:	95 54       	subi	r25, 0x45	; 69
    2814:	93 30       	cpi	r25, 0x03	; 3
    2816:	18 f4       	brcc	.+6      	; 0x281e <vfprintf+0x13e>
    2818:	00 61       	ori	r16, 0x10	; 16
    281a:	80 5e       	subi	r24, 0xE0	; 224
    281c:	06 c0       	rjmp	.+12     	; 0x282a <vfprintf+0x14a>
    281e:	98 2f       	mov	r25, r24
    2820:	95 56       	subi	r25, 0x65	; 101
    2822:	93 30       	cpi	r25, 0x03	; 3
    2824:	08 f0       	brcs	.+2      	; 0x2828 <vfprintf+0x148>
    2826:	9b c1       	rjmp	.+822    	; 0x2b5e <vfprintf+0x47e>
    2828:	0f 7e       	andi	r16, 0xEF	; 239
    282a:	06 ff       	sbrs	r16, 6
    282c:	16 e0       	ldi	r17, 0x06	; 6
    282e:	6f e3       	ldi	r22, 0x3F	; 63
    2830:	e6 2e       	mov	r14, r22
    2832:	e0 22       	and	r14, r16
    2834:	85 36       	cpi	r24, 0x65	; 101
    2836:	19 f4       	brne	.+6      	; 0x283e <vfprintf+0x15e>
    2838:	f0 e4       	ldi	r31, 0x40	; 64
    283a:	ef 2a       	or	r14, r31
    283c:	07 c0       	rjmp	.+14     	; 0x284c <vfprintf+0x16c>
    283e:	86 36       	cpi	r24, 0x66	; 102
    2840:	19 f4       	brne	.+6      	; 0x2848 <vfprintf+0x168>
    2842:	20 e8       	ldi	r18, 0x80	; 128
    2844:	e2 2a       	or	r14, r18
    2846:	02 c0       	rjmp	.+4      	; 0x284c <vfprintf+0x16c>
    2848:	11 11       	cpse	r17, r1
    284a:	11 50       	subi	r17, 0x01	; 1
    284c:	e7 fe       	sbrs	r14, 7
    284e:	06 c0       	rjmp	.+12     	; 0x285c <vfprintf+0x17c>
    2850:	1c 33       	cpi	r17, 0x3C	; 60
    2852:	40 f4       	brcc	.+16     	; 0x2864 <vfprintf+0x184>
    2854:	91 2e       	mov	r9, r17
    2856:	93 94       	inc	r9
    2858:	27 e0       	ldi	r18, 0x07	; 7
    285a:	0b c0       	rjmp	.+22     	; 0x2872 <vfprintf+0x192>
    285c:	18 30       	cpi	r17, 0x08	; 8
    285e:	30 f4       	brcc	.+12     	; 0x286c <vfprintf+0x18c>
    2860:	21 2f       	mov	r18, r17
    2862:	06 c0       	rjmp	.+12     	; 0x2870 <vfprintf+0x190>
    2864:	27 e0       	ldi	r18, 0x07	; 7
    2866:	3c e3       	ldi	r19, 0x3C	; 60
    2868:	93 2e       	mov	r9, r19
    286a:	03 c0       	rjmp	.+6      	; 0x2872 <vfprintf+0x192>
    286c:	27 e0       	ldi	r18, 0x07	; 7
    286e:	17 e0       	ldi	r17, 0x07	; 7
    2870:	99 24       	eor	r9, r9
    2872:	ca 01       	movw	r24, r20
    2874:	04 96       	adiw	r24, 0x04	; 4
    2876:	9d 87       	std	Y+13, r25	; 0x0d
    2878:	8c 87       	std	Y+12, r24	; 0x0c
    287a:	fa 01       	movw	r30, r20
    287c:	60 81       	ld	r22, Z
    287e:	71 81       	ldd	r23, Z+1	; 0x01
    2880:	82 81       	ldd	r24, Z+2	; 0x02
    2882:	93 81       	ldd	r25, Z+3	; 0x03
    2884:	a1 01       	movw	r20, r2
    2886:	09 2d       	mov	r16, r9
    2888:	0e 94 69 19 	call	0x32d2	; 0x32d2 <__ftoa_engine>
    288c:	5c 01       	movw	r10, r24
    288e:	69 80       	ldd	r6, Y+1	; 0x01
    2890:	26 2d       	mov	r18, r6
    2892:	30 e0       	ldi	r19, 0x00	; 0
    2894:	39 8b       	std	Y+17, r19	; 0x11
    2896:	28 8b       	std	Y+16, r18	; 0x10
    2898:	60 fe       	sbrs	r6, 0
    289a:	03 c0       	rjmp	.+6      	; 0x28a2 <vfprintf+0x1c2>
    289c:	38 89       	ldd	r19, Y+16	; 0x10
    289e:	33 ff       	sbrs	r19, 3
    28a0:	06 c0       	rjmp	.+12     	; 0x28ae <vfprintf+0x1ce>
    28a2:	e1 fc       	sbrc	r14, 1
    28a4:	06 c0       	rjmp	.+12     	; 0x28b2 <vfprintf+0x1d2>
    28a6:	e2 fe       	sbrs	r14, 2
    28a8:	06 c0       	rjmp	.+12     	; 0x28b6 <vfprintf+0x1d6>
    28aa:	00 e2       	ldi	r16, 0x20	; 32
    28ac:	05 c0       	rjmp	.+10     	; 0x28b8 <vfprintf+0x1d8>
    28ae:	0d e2       	ldi	r16, 0x2D	; 45
    28b0:	03 c0       	rjmp	.+6      	; 0x28b8 <vfprintf+0x1d8>
    28b2:	0b e2       	ldi	r16, 0x2B	; 43
    28b4:	01 c0       	rjmp	.+2      	; 0x28b8 <vfprintf+0x1d8>
    28b6:	00 e0       	ldi	r16, 0x00	; 0
    28b8:	88 89       	ldd	r24, Y+16	; 0x10
    28ba:	99 89       	ldd	r25, Y+17	; 0x11
    28bc:	8c 70       	andi	r24, 0x0C	; 12
    28be:	90 70       	andi	r25, 0x00	; 0
    28c0:	00 97       	sbiw	r24, 0x00	; 0
    28c2:	c1 f1       	breq	.+112    	; 0x2934 <vfprintf+0x254>
    28c4:	00 23       	and	r16, r16
    28c6:	11 f0       	breq	.+4      	; 0x28cc <vfprintf+0x1ec>
    28c8:	84 e0       	ldi	r24, 0x04	; 4
    28ca:	01 c0       	rjmp	.+2      	; 0x28ce <vfprintf+0x1ee>
    28cc:	83 e0       	ldi	r24, 0x03	; 3
    28ce:	8f 15       	cp	r24, r15
    28d0:	58 f4       	brcc	.+22     	; 0x28e8 <vfprintf+0x208>
    28d2:	f8 1a       	sub	r15, r24
    28d4:	e3 fc       	sbrc	r14, 3
    28d6:	09 c0       	rjmp	.+18     	; 0x28ea <vfprintf+0x20a>
    28d8:	80 e2       	ldi	r24, 0x20	; 32
    28da:	90 e0       	ldi	r25, 0x00	; 0
    28dc:	b6 01       	movw	r22, r12
    28de:	0e 94 57 1a 	call	0x34ae	; 0x34ae <fputc>
    28e2:	fa 94       	dec	r15
    28e4:	c9 f7       	brne	.-14     	; 0x28d8 <vfprintf+0x1f8>
    28e6:	01 c0       	rjmp	.+2      	; 0x28ea <vfprintf+0x20a>
    28e8:	ff 24       	eor	r15, r15
    28ea:	00 23       	and	r16, r16
    28ec:	29 f0       	breq	.+10     	; 0x28f8 <vfprintf+0x218>
    28ee:	80 2f       	mov	r24, r16
    28f0:	90 e0       	ldi	r25, 0x00	; 0
    28f2:	b6 01       	movw	r22, r12
    28f4:	0e 94 57 1a 	call	0x34ae	; 0x34ae <fputc>
    28f8:	88 89       	ldd	r24, Y+16	; 0x10
    28fa:	83 fd       	sbrc	r24, 3
    28fc:	03 c0       	rjmp	.+6      	; 0x2904 <vfprintf+0x224>
    28fe:	00 e9       	ldi	r16, 0x90	; 144
    2900:	10 e0       	ldi	r17, 0x00	; 0
    2902:	0e c0       	rjmp	.+28     	; 0x2920 <vfprintf+0x240>
    2904:	0c e8       	ldi	r16, 0x8C	; 140
    2906:	10 e0       	ldi	r17, 0x00	; 0
    2908:	0b c0       	rjmp	.+22     	; 0x2920 <vfprintf+0x240>
    290a:	a1 14       	cp	r10, r1
    290c:	b1 04       	cpc	r11, r1
    290e:	09 f0       	breq	.+2      	; 0x2912 <vfprintf+0x232>
    2910:	80 52       	subi	r24, 0x20	; 32
    2912:	90 e0       	ldi	r25, 0x00	; 0
    2914:	b6 01       	movw	r22, r12
    2916:	0e 94 57 1a 	call	0x34ae	; 0x34ae <fputc>
    291a:	0f 5f       	subi	r16, 0xFF	; 255
    291c:	1f 4f       	sbci	r17, 0xFF	; 255
    291e:	05 c0       	rjmp	.+10     	; 0x292a <vfprintf+0x24a>
    2920:	ae 2c       	mov	r10, r14
    2922:	bb 24       	eor	r11, r11
    2924:	90 e1       	ldi	r25, 0x10	; 16
    2926:	a9 22       	and	r10, r25
    2928:	bb 24       	eor	r11, r11
    292a:	f8 01       	movw	r30, r16
    292c:	84 91       	lpm	r24, Z+
    292e:	88 23       	and	r24, r24
    2930:	61 f7       	brne	.-40     	; 0x290a <vfprintf+0x22a>
    2932:	62 c2       	rjmp	.+1220   	; 0x2df8 <vfprintf+0x718>
    2934:	e7 fe       	sbrs	r14, 7
    2936:	0e c0       	rjmp	.+28     	; 0x2954 <vfprintf+0x274>
    2938:	9a 0c       	add	r9, r10
    293a:	f8 89       	ldd	r31, Y+16	; 0x10
    293c:	f4 ff       	sbrs	r31, 4
    293e:	04 c0       	rjmp	.+8      	; 0x2948 <vfprintf+0x268>
    2940:	8a 81       	ldd	r24, Y+2	; 0x02
    2942:	81 33       	cpi	r24, 0x31	; 49
    2944:	09 f4       	brne	.+2      	; 0x2948 <vfprintf+0x268>
    2946:	9a 94       	dec	r9
    2948:	19 14       	cp	r1, r9
    294a:	54 f5       	brge	.+84     	; 0x29a0 <vfprintf+0x2c0>
    294c:	29 2d       	mov	r18, r9
    294e:	29 30       	cpi	r18, 0x09	; 9
    2950:	50 f5       	brcc	.+84     	; 0x29a6 <vfprintf+0x2c6>
    2952:	2d c0       	rjmp	.+90     	; 0x29ae <vfprintf+0x2ce>
    2954:	e6 fc       	sbrc	r14, 6
    2956:	2b c0       	rjmp	.+86     	; 0x29ae <vfprintf+0x2ce>
    2958:	81 2f       	mov	r24, r17
    295a:	90 e0       	ldi	r25, 0x00	; 0
    295c:	8a 15       	cp	r24, r10
    295e:	9b 05       	cpc	r25, r11
    2960:	4c f0       	brlt	.+18     	; 0x2974 <vfprintf+0x294>
    2962:	3c ef       	ldi	r19, 0xFC	; 252
    2964:	a3 16       	cp	r10, r19
    2966:	3f ef       	ldi	r19, 0xFF	; 255
    2968:	b3 06       	cpc	r11, r19
    296a:	24 f0       	brlt	.+8      	; 0x2974 <vfprintf+0x294>
    296c:	80 e8       	ldi	r24, 0x80	; 128
    296e:	e8 2a       	or	r14, r24
    2970:	01 c0       	rjmp	.+2      	; 0x2974 <vfprintf+0x294>
    2972:	11 50       	subi	r17, 0x01	; 1
    2974:	11 23       	and	r17, r17
    2976:	49 f0       	breq	.+18     	; 0x298a <vfprintf+0x2aa>
    2978:	e2 e0       	ldi	r30, 0x02	; 2
    297a:	f0 e0       	ldi	r31, 0x00	; 0
    297c:	ec 0f       	add	r30, r28
    297e:	fd 1f       	adc	r31, r29
    2980:	e1 0f       	add	r30, r17
    2982:	f1 1d       	adc	r31, r1
    2984:	80 81       	ld	r24, Z
    2986:	80 33       	cpi	r24, 0x30	; 48
    2988:	a1 f3       	breq	.-24     	; 0x2972 <vfprintf+0x292>
    298a:	e7 fe       	sbrs	r14, 7
    298c:	10 c0       	rjmp	.+32     	; 0x29ae <vfprintf+0x2ce>
    298e:	91 2e       	mov	r9, r17
    2990:	93 94       	inc	r9
    2992:	81 2f       	mov	r24, r17
    2994:	90 e0       	ldi	r25, 0x00	; 0
    2996:	a8 16       	cp	r10, r24
    2998:	b9 06       	cpc	r11, r25
    299a:	44 f4       	brge	.+16     	; 0x29ac <vfprintf+0x2cc>
    299c:	1a 19       	sub	r17, r10
    299e:	07 c0       	rjmp	.+14     	; 0x29ae <vfprintf+0x2ce>
    29a0:	99 24       	eor	r9, r9
    29a2:	93 94       	inc	r9
    29a4:	04 c0       	rjmp	.+8      	; 0x29ae <vfprintf+0x2ce>
    29a6:	98 e0       	ldi	r25, 0x08	; 8
    29a8:	99 2e       	mov	r9, r25
    29aa:	01 c0       	rjmp	.+2      	; 0x29ae <vfprintf+0x2ce>
    29ac:	10 e0       	ldi	r17, 0x00	; 0
    29ae:	e7 fe       	sbrs	r14, 7
    29b0:	07 c0       	rjmp	.+14     	; 0x29c0 <vfprintf+0x2e0>
    29b2:	1a 14       	cp	r1, r10
    29b4:	1b 04       	cpc	r1, r11
    29b6:	3c f4       	brge	.+14     	; 0x29c6 <vfprintf+0x2e6>
    29b8:	95 01       	movw	r18, r10
    29ba:	2f 5f       	subi	r18, 0xFF	; 255
    29bc:	3f 4f       	sbci	r19, 0xFF	; 255
    29be:	05 c0       	rjmp	.+10     	; 0x29ca <vfprintf+0x2ea>
    29c0:	25 e0       	ldi	r18, 0x05	; 5
    29c2:	30 e0       	ldi	r19, 0x00	; 0
    29c4:	02 c0       	rjmp	.+4      	; 0x29ca <vfprintf+0x2ea>
    29c6:	21 e0       	ldi	r18, 0x01	; 1
    29c8:	30 e0       	ldi	r19, 0x00	; 0
    29ca:	00 23       	and	r16, r16
    29cc:	11 f0       	breq	.+4      	; 0x29d2 <vfprintf+0x2f2>
    29ce:	2f 5f       	subi	r18, 0xFF	; 255
    29d0:	3f 4f       	sbci	r19, 0xFF	; 255
    29d2:	11 23       	and	r17, r17
    29d4:	29 f0       	breq	.+10     	; 0x29e0 <vfprintf+0x300>
    29d6:	81 2f       	mov	r24, r17
    29d8:	90 e0       	ldi	r25, 0x00	; 0
    29da:	01 96       	adiw	r24, 0x01	; 1
    29dc:	28 0f       	add	r18, r24
    29de:	39 1f       	adc	r19, r25
    29e0:	8f 2d       	mov	r24, r15
    29e2:	90 e0       	ldi	r25, 0x00	; 0
    29e4:	28 17       	cp	r18, r24
    29e6:	39 07       	cpc	r19, r25
    29e8:	14 f4       	brge	.+4      	; 0x29ee <vfprintf+0x30e>
    29ea:	f2 1a       	sub	r15, r18
    29ec:	01 c0       	rjmp	.+2      	; 0x29f0 <vfprintf+0x310>
    29ee:	ff 24       	eor	r15, r15
    29f0:	4e 2c       	mov	r4, r14
    29f2:	55 24       	eor	r5, r5
    29f4:	c2 01       	movw	r24, r4
    29f6:	89 70       	andi	r24, 0x09	; 9
    29f8:	90 70       	andi	r25, 0x00	; 0
    29fa:	00 97       	sbiw	r24, 0x00	; 0
    29fc:	49 f4       	brne	.+18     	; 0x2a10 <vfprintf+0x330>
    29fe:	06 c0       	rjmp	.+12     	; 0x2a0c <vfprintf+0x32c>
    2a00:	80 e2       	ldi	r24, 0x20	; 32
    2a02:	90 e0       	ldi	r25, 0x00	; 0
    2a04:	b6 01       	movw	r22, r12
    2a06:	0e 94 57 1a 	call	0x34ae	; 0x34ae <fputc>
    2a0a:	fa 94       	dec	r15
    2a0c:	ff 20       	and	r15, r15
    2a0e:	c1 f7       	brne	.-16     	; 0x2a00 <vfprintf+0x320>
    2a10:	00 23       	and	r16, r16
    2a12:	29 f0       	breq	.+10     	; 0x2a1e <vfprintf+0x33e>
    2a14:	80 2f       	mov	r24, r16
    2a16:	90 e0       	ldi	r25, 0x00	; 0
    2a18:	b6 01       	movw	r22, r12
    2a1a:	0e 94 57 1a 	call	0x34ae	; 0x34ae <fputc>
    2a1e:	43 fc       	sbrc	r4, 3
    2a20:	09 c0       	rjmp	.+18     	; 0x2a34 <vfprintf+0x354>
    2a22:	06 c0       	rjmp	.+12     	; 0x2a30 <vfprintf+0x350>
    2a24:	80 e3       	ldi	r24, 0x30	; 48
    2a26:	90 e0       	ldi	r25, 0x00	; 0
    2a28:	b6 01       	movw	r22, r12
    2a2a:	0e 94 57 1a 	call	0x34ae	; 0x34ae <fputc>
    2a2e:	fa 94       	dec	r15
    2a30:	ff 20       	and	r15, r15
    2a32:	c1 f7       	brne	.-16     	; 0x2a24 <vfprintf+0x344>
    2a34:	e7 fe       	sbrs	r14, 7
    2a36:	46 c0       	rjmp	.+140    	; 0x2ac4 <vfprintf+0x3e4>
    2a38:	35 01       	movw	r6, r10
    2a3a:	b7 fe       	sbrs	r11, 7
    2a3c:	02 c0       	rjmp	.+4      	; 0x2a42 <vfprintf+0x362>
    2a3e:	66 24       	eor	r6, r6
    2a40:	77 24       	eor	r7, r7
    2a42:	25 01       	movw	r4, r10
    2a44:	08 94       	sec
    2a46:	41 1c       	adc	r4, r1
    2a48:	51 1c       	adc	r5, r1
    2a4a:	46 18       	sub	r4, r6
    2a4c:	57 08       	sbc	r5, r7
    2a4e:	42 0c       	add	r4, r2
    2a50:	53 1c       	adc	r5, r3
    2a52:	f5 01       	movw	r30, r10
    2a54:	e9 19       	sub	r30, r9
    2a56:	f1 09       	sbc	r31, r1
    2a58:	4f 01       	movw	r8, r30
    2a5a:	81 2f       	mov	r24, r17
    2a5c:	90 e0       	ldi	r25, 0x00	; 0
    2a5e:	00 27       	eor	r16, r16
    2a60:	11 27       	eor	r17, r17
    2a62:	08 1b       	sub	r16, r24
    2a64:	19 0b       	sbc	r17, r25
    2a66:	ff ef       	ldi	r31, 0xFF	; 255
    2a68:	6f 16       	cp	r6, r31
    2a6a:	ff ef       	ldi	r31, 0xFF	; 255
    2a6c:	7f 06       	cpc	r7, r31
    2a6e:	29 f4       	brne	.+10     	; 0x2a7a <vfprintf+0x39a>
    2a70:	8e e2       	ldi	r24, 0x2E	; 46
    2a72:	90 e0       	ldi	r25, 0x00	; 0
    2a74:	b6 01       	movw	r22, r12
    2a76:	0e 94 57 1a 	call	0x34ae	; 0x34ae <fputc>
    2a7a:	a6 14       	cp	r10, r6
    2a7c:	b7 04       	cpc	r11, r7
    2a7e:	34 f0       	brlt	.+12     	; 0x2a8c <vfprintf+0x3ac>
    2a80:	86 14       	cp	r8, r6
    2a82:	97 04       	cpc	r9, r7
    2a84:	1c f4       	brge	.+6      	; 0x2a8c <vfprintf+0x3ac>
    2a86:	f2 01       	movw	r30, r4
    2a88:	80 81       	ld	r24, Z
    2a8a:	01 c0       	rjmp	.+2      	; 0x2a8e <vfprintf+0x3ae>
    2a8c:	80 e3       	ldi	r24, 0x30	; 48
    2a8e:	08 94       	sec
    2a90:	61 08       	sbc	r6, r1
    2a92:	71 08       	sbc	r7, r1
    2a94:	08 94       	sec
    2a96:	41 1c       	adc	r4, r1
    2a98:	51 1c       	adc	r5, r1
    2a9a:	60 16       	cp	r6, r16
    2a9c:	71 06       	cpc	r7, r17
    2a9e:	2c f0       	brlt	.+10     	; 0x2aaa <vfprintf+0x3ca>
    2aa0:	90 e0       	ldi	r25, 0x00	; 0
    2aa2:	b6 01       	movw	r22, r12
    2aa4:	0e 94 57 1a 	call	0x34ae	; 0x34ae <fputc>
    2aa8:	de cf       	rjmp	.-68     	; 0x2a66 <vfprintf+0x386>
    2aaa:	6a 14       	cp	r6, r10
    2aac:	7b 04       	cpc	r7, r11
    2aae:	41 f4       	brne	.+16     	; 0x2ac0 <vfprintf+0x3e0>
    2ab0:	9a 81       	ldd	r25, Y+2	; 0x02
    2ab2:	96 33       	cpi	r25, 0x36	; 54
    2ab4:	20 f4       	brcc	.+8      	; 0x2abe <vfprintf+0x3de>
    2ab6:	95 33       	cpi	r25, 0x35	; 53
    2ab8:	19 f4       	brne	.+6      	; 0x2ac0 <vfprintf+0x3e0>
    2aba:	f8 89       	ldd	r31, Y+16	; 0x10
    2abc:	f4 ff       	sbrs	r31, 4
    2abe:	81 e3       	ldi	r24, 0x31	; 49
    2ac0:	90 e0       	ldi	r25, 0x00	; 0
    2ac2:	49 c0       	rjmp	.+146    	; 0x2b56 <vfprintf+0x476>
    2ac4:	8a 81       	ldd	r24, Y+2	; 0x02
    2ac6:	81 33       	cpi	r24, 0x31	; 49
    2ac8:	11 f0       	breq	.+4      	; 0x2ace <vfprintf+0x3ee>
    2aca:	2f ee       	ldi	r18, 0xEF	; 239
    2acc:	62 22       	and	r6, r18
    2ace:	90 e0       	ldi	r25, 0x00	; 0
    2ad0:	b6 01       	movw	r22, r12
    2ad2:	0e 94 57 1a 	call	0x34ae	; 0x34ae <fputc>
    2ad6:	11 23       	and	r17, r17
    2ad8:	89 f0       	breq	.+34     	; 0x2afc <vfprintf+0x41c>
    2ada:	8e e2       	ldi	r24, 0x2E	; 46
    2adc:	90 e0       	ldi	r25, 0x00	; 0
    2ade:	b6 01       	movw	r22, r12
    2ae0:	0e 94 57 1a 	call	0x34ae	; 0x34ae <fputc>
    2ae4:	02 e0       	ldi	r16, 0x02	; 2
    2ae6:	f1 01       	movw	r30, r2
    2ae8:	e0 0f       	add	r30, r16
    2aea:	f1 1d       	adc	r31, r1
    2aec:	0f 5f       	subi	r16, 0xFF	; 255
    2aee:	80 81       	ld	r24, Z
    2af0:	90 e0       	ldi	r25, 0x00	; 0
    2af2:	b6 01       	movw	r22, r12
    2af4:	0e 94 57 1a 	call	0x34ae	; 0x34ae <fputc>
    2af8:	11 50       	subi	r17, 0x01	; 1
    2afa:	a9 f7       	brne	.-22     	; 0x2ae6 <vfprintf+0x406>
    2afc:	44 fe       	sbrs	r4, 4
    2afe:	03 c0       	rjmp	.+6      	; 0x2b06 <vfprintf+0x426>
    2b00:	85 e4       	ldi	r24, 0x45	; 69
    2b02:	90 e0       	ldi	r25, 0x00	; 0
    2b04:	02 c0       	rjmp	.+4      	; 0x2b0a <vfprintf+0x42a>
    2b06:	85 e6       	ldi	r24, 0x65	; 101
    2b08:	90 e0       	ldi	r25, 0x00	; 0
    2b0a:	b6 01       	movw	r22, r12
    2b0c:	0e 94 57 1a 	call	0x34ae	; 0x34ae <fputc>
    2b10:	b7 fc       	sbrc	r11, 7
    2b12:	05 c0       	rjmp	.+10     	; 0x2b1e <vfprintf+0x43e>
    2b14:	a1 14       	cp	r10, r1
    2b16:	b1 04       	cpc	r11, r1
    2b18:	41 f4       	brne	.+16     	; 0x2b2a <vfprintf+0x44a>
    2b1a:	64 fe       	sbrs	r6, 4
    2b1c:	06 c0       	rjmp	.+12     	; 0x2b2a <vfprintf+0x44a>
    2b1e:	b0 94       	com	r11
    2b20:	a1 94       	neg	r10
    2b22:	b1 08       	sbc	r11, r1
    2b24:	b3 94       	inc	r11
    2b26:	8d e2       	ldi	r24, 0x2D	; 45
    2b28:	01 c0       	rjmp	.+2      	; 0x2b2c <vfprintf+0x44c>
    2b2a:	8b e2       	ldi	r24, 0x2B	; 43
    2b2c:	90 e0       	ldi	r25, 0x00	; 0
    2b2e:	b6 01       	movw	r22, r12
    2b30:	0e 94 57 1a 	call	0x34ae	; 0x34ae <fputc>
    2b34:	80 e3       	ldi	r24, 0x30	; 48
    2b36:	05 c0       	rjmp	.+10     	; 0x2b42 <vfprintf+0x462>
    2b38:	8f 5f       	subi	r24, 0xFF	; 255
    2b3a:	e6 ef       	ldi	r30, 0xF6	; 246
    2b3c:	ff ef       	ldi	r31, 0xFF	; 255
    2b3e:	ae 0e       	add	r10, r30
    2b40:	bf 1e       	adc	r11, r31
    2b42:	fa e0       	ldi	r31, 0x0A	; 10
    2b44:	af 16       	cp	r10, r31
    2b46:	b1 04       	cpc	r11, r1
    2b48:	bc f7       	brge	.-18     	; 0x2b38 <vfprintf+0x458>
    2b4a:	90 e0       	ldi	r25, 0x00	; 0
    2b4c:	b6 01       	movw	r22, r12
    2b4e:	0e 94 57 1a 	call	0x34ae	; 0x34ae <fputc>
    2b52:	c5 01       	movw	r24, r10
    2b54:	c0 96       	adiw	r24, 0x30	; 48
    2b56:	b6 01       	movw	r22, r12
    2b58:	0e 94 57 1a 	call	0x34ae	; 0x34ae <fputc>
    2b5c:	4d c1       	rjmp	.+666    	; 0x2df8 <vfprintf+0x718>
    2b5e:	83 36       	cpi	r24, 0x63	; 99
    2b60:	31 f0       	breq	.+12     	; 0x2b6e <vfprintf+0x48e>
    2b62:	83 37       	cpi	r24, 0x73	; 115
    2b64:	89 f0       	breq	.+34     	; 0x2b88 <vfprintf+0x4a8>
    2b66:	83 35       	cpi	r24, 0x53	; 83
    2b68:	09 f0       	breq	.+2      	; 0x2b6c <vfprintf+0x48c>
    2b6a:	59 c0       	rjmp	.+178    	; 0x2c1e <vfprintf+0x53e>
    2b6c:	22 c0       	rjmp	.+68     	; 0x2bb2 <vfprintf+0x4d2>
    2b6e:	9a 01       	movw	r18, r20
    2b70:	2e 5f       	subi	r18, 0xFE	; 254
    2b72:	3f 4f       	sbci	r19, 0xFF	; 255
    2b74:	3d 87       	std	Y+13, r19	; 0x0d
    2b76:	2c 87       	std	Y+12, r18	; 0x0c
    2b78:	fa 01       	movw	r30, r20
    2b7a:	80 81       	ld	r24, Z
    2b7c:	89 83       	std	Y+1, r24	; 0x01
    2b7e:	31 01       	movw	r6, r2
    2b80:	81 e0       	ldi	r24, 0x01	; 1
    2b82:	a8 2e       	mov	r10, r24
    2b84:	b1 2c       	mov	r11, r1
    2b86:	13 c0       	rjmp	.+38     	; 0x2bae <vfprintf+0x4ce>
    2b88:	9a 01       	movw	r18, r20
    2b8a:	2e 5f       	subi	r18, 0xFE	; 254
    2b8c:	3f 4f       	sbci	r19, 0xFF	; 255
    2b8e:	3d 87       	std	Y+13, r19	; 0x0d
    2b90:	2c 87       	std	Y+12, r18	; 0x0c
    2b92:	fa 01       	movw	r30, r20
    2b94:	60 80       	ld	r6, Z
    2b96:	71 80       	ldd	r7, Z+1	; 0x01
    2b98:	06 ff       	sbrs	r16, 6
    2b9a:	03 c0       	rjmp	.+6      	; 0x2ba2 <vfprintf+0x4c2>
    2b9c:	61 2f       	mov	r22, r17
    2b9e:	70 e0       	ldi	r23, 0x00	; 0
    2ba0:	02 c0       	rjmp	.+4      	; 0x2ba6 <vfprintf+0x4c6>
    2ba2:	6f ef       	ldi	r22, 0xFF	; 255
    2ba4:	7f ef       	ldi	r23, 0xFF	; 255
    2ba6:	c3 01       	movw	r24, r6
    2ba8:	0e 94 4c 1a 	call	0x3498	; 0x3498 <strnlen>
    2bac:	5c 01       	movw	r10, r24
    2bae:	0f 77       	andi	r16, 0x7F	; 127
    2bb0:	14 c0       	rjmp	.+40     	; 0x2bda <vfprintf+0x4fa>
    2bb2:	9a 01       	movw	r18, r20
    2bb4:	2e 5f       	subi	r18, 0xFE	; 254
    2bb6:	3f 4f       	sbci	r19, 0xFF	; 255
    2bb8:	3d 87       	std	Y+13, r19	; 0x0d
    2bba:	2c 87       	std	Y+12, r18	; 0x0c
    2bbc:	fa 01       	movw	r30, r20
    2bbe:	60 80       	ld	r6, Z
    2bc0:	71 80       	ldd	r7, Z+1	; 0x01
    2bc2:	06 ff       	sbrs	r16, 6
    2bc4:	03 c0       	rjmp	.+6      	; 0x2bcc <vfprintf+0x4ec>
    2bc6:	61 2f       	mov	r22, r17
    2bc8:	70 e0       	ldi	r23, 0x00	; 0
    2bca:	02 c0       	rjmp	.+4      	; 0x2bd0 <vfprintf+0x4f0>
    2bcc:	6f ef       	ldi	r22, 0xFF	; 255
    2bce:	7f ef       	ldi	r23, 0xFF	; 255
    2bd0:	c3 01       	movw	r24, r6
    2bd2:	0e 94 41 1a 	call	0x3482	; 0x3482 <strnlen_P>
    2bd6:	5c 01       	movw	r10, r24
    2bd8:	00 68       	ori	r16, 0x80	; 128
    2bda:	03 fd       	sbrc	r16, 3
    2bdc:	1c c0       	rjmp	.+56     	; 0x2c16 <vfprintf+0x536>
    2bde:	06 c0       	rjmp	.+12     	; 0x2bec <vfprintf+0x50c>
    2be0:	80 e2       	ldi	r24, 0x20	; 32
    2be2:	90 e0       	ldi	r25, 0x00	; 0
    2be4:	b6 01       	movw	r22, r12
    2be6:	0e 94 57 1a 	call	0x34ae	; 0x34ae <fputc>
    2bea:	fa 94       	dec	r15
    2bec:	8f 2d       	mov	r24, r15
    2bee:	90 e0       	ldi	r25, 0x00	; 0
    2bf0:	a8 16       	cp	r10, r24
    2bf2:	b9 06       	cpc	r11, r25
    2bf4:	a8 f3       	brcs	.-22     	; 0x2be0 <vfprintf+0x500>
    2bf6:	0f c0       	rjmp	.+30     	; 0x2c16 <vfprintf+0x536>
    2bf8:	f3 01       	movw	r30, r6
    2bfa:	07 fd       	sbrc	r16, 7
    2bfc:	85 91       	lpm	r24, Z+
    2bfe:	07 ff       	sbrs	r16, 7
    2c00:	81 91       	ld	r24, Z+
    2c02:	3f 01       	movw	r6, r30
    2c04:	90 e0       	ldi	r25, 0x00	; 0
    2c06:	b6 01       	movw	r22, r12
    2c08:	0e 94 57 1a 	call	0x34ae	; 0x34ae <fputc>
    2c0c:	f1 10       	cpse	r15, r1
    2c0e:	fa 94       	dec	r15
    2c10:	08 94       	sec
    2c12:	a1 08       	sbc	r10, r1
    2c14:	b1 08       	sbc	r11, r1
    2c16:	a1 14       	cp	r10, r1
    2c18:	b1 04       	cpc	r11, r1
    2c1a:	71 f7       	brne	.-36     	; 0x2bf8 <vfprintf+0x518>
    2c1c:	ed c0       	rjmp	.+474    	; 0x2df8 <vfprintf+0x718>
    2c1e:	84 36       	cpi	r24, 0x64	; 100
    2c20:	11 f0       	breq	.+4      	; 0x2c26 <vfprintf+0x546>
    2c22:	89 36       	cpi	r24, 0x69	; 105
    2c24:	61 f5       	brne	.+88     	; 0x2c7e <vfprintf+0x59e>
    2c26:	07 ff       	sbrs	r16, 7
    2c28:	0b c0       	rjmp	.+22     	; 0x2c40 <vfprintf+0x560>
    2c2a:	9a 01       	movw	r18, r20
    2c2c:	2c 5f       	subi	r18, 0xFC	; 252
    2c2e:	3f 4f       	sbci	r19, 0xFF	; 255
    2c30:	3d 87       	std	Y+13, r19	; 0x0d
    2c32:	2c 87       	std	Y+12, r18	; 0x0c
    2c34:	fa 01       	movw	r30, r20
    2c36:	60 81       	ld	r22, Z
    2c38:	71 81       	ldd	r23, Z+1	; 0x01
    2c3a:	82 81       	ldd	r24, Z+2	; 0x02
    2c3c:	93 81       	ldd	r25, Z+3	; 0x03
    2c3e:	0c c0       	rjmp	.+24     	; 0x2c58 <vfprintf+0x578>
    2c40:	9a 01       	movw	r18, r20
    2c42:	2e 5f       	subi	r18, 0xFE	; 254
    2c44:	3f 4f       	sbci	r19, 0xFF	; 255
    2c46:	3d 87       	std	Y+13, r19	; 0x0d
    2c48:	2c 87       	std	Y+12, r18	; 0x0c
    2c4a:	fa 01       	movw	r30, r20
    2c4c:	60 81       	ld	r22, Z
    2c4e:	71 81       	ldd	r23, Z+1	; 0x01
    2c50:	88 27       	eor	r24, r24
    2c52:	77 fd       	sbrc	r23, 7
    2c54:	80 95       	com	r24
    2c56:	98 2f       	mov	r25, r24
    2c58:	0f 76       	andi	r16, 0x6F	; 111
    2c5a:	97 ff       	sbrs	r25, 7
    2c5c:	08 c0       	rjmp	.+16     	; 0x2c6e <vfprintf+0x58e>
    2c5e:	90 95       	com	r25
    2c60:	80 95       	com	r24
    2c62:	70 95       	com	r23
    2c64:	61 95       	neg	r22
    2c66:	7f 4f       	sbci	r23, 0xFF	; 255
    2c68:	8f 4f       	sbci	r24, 0xFF	; 255
    2c6a:	9f 4f       	sbci	r25, 0xFF	; 255
    2c6c:	00 68       	ori	r16, 0x80	; 128
    2c6e:	a1 01       	movw	r20, r2
    2c70:	2a e0       	ldi	r18, 0x0A	; 10
    2c72:	30 e0       	ldi	r19, 0x00	; 0
    2c74:	0e 94 b3 1a 	call	0x3566	; 0x3566 <__ultoa_invert>
    2c78:	98 2e       	mov	r9, r24
    2c7a:	92 18       	sub	r9, r2
    2c7c:	41 c0       	rjmp	.+130    	; 0x2d00 <vfprintf+0x620>
    2c7e:	85 37       	cpi	r24, 0x75	; 117
    2c80:	21 f4       	brne	.+8      	; 0x2c8a <vfprintf+0x5aa>
    2c82:	0f 7e       	andi	r16, 0xEF	; 239
    2c84:	2a e0       	ldi	r18, 0x0A	; 10
    2c86:	30 e0       	ldi	r19, 0x00	; 0
    2c88:	20 c0       	rjmp	.+64     	; 0x2cca <vfprintf+0x5ea>
    2c8a:	09 7f       	andi	r16, 0xF9	; 249
    2c8c:	8f 36       	cpi	r24, 0x6F	; 111
    2c8e:	a9 f0       	breq	.+42     	; 0x2cba <vfprintf+0x5da>
    2c90:	80 37       	cpi	r24, 0x70	; 112
    2c92:	20 f4       	brcc	.+8      	; 0x2c9c <vfprintf+0x5bc>
    2c94:	88 35       	cpi	r24, 0x58	; 88
    2c96:	09 f0       	breq	.+2      	; 0x2c9a <vfprintf+0x5ba>
    2c98:	b2 c0       	rjmp	.+356    	; 0x2dfe <vfprintf+0x71e>
    2c9a:	0b c0       	rjmp	.+22     	; 0x2cb2 <vfprintf+0x5d2>
    2c9c:	80 37       	cpi	r24, 0x70	; 112
    2c9e:	21 f0       	breq	.+8      	; 0x2ca8 <vfprintf+0x5c8>
    2ca0:	88 37       	cpi	r24, 0x78	; 120
    2ca2:	09 f0       	breq	.+2      	; 0x2ca6 <vfprintf+0x5c6>
    2ca4:	ac c0       	rjmp	.+344    	; 0x2dfe <vfprintf+0x71e>
    2ca6:	01 c0       	rjmp	.+2      	; 0x2caa <vfprintf+0x5ca>
    2ca8:	00 61       	ori	r16, 0x10	; 16
    2caa:	04 ff       	sbrs	r16, 4
    2cac:	09 c0       	rjmp	.+18     	; 0x2cc0 <vfprintf+0x5e0>
    2cae:	04 60       	ori	r16, 0x04	; 4
    2cb0:	07 c0       	rjmp	.+14     	; 0x2cc0 <vfprintf+0x5e0>
    2cb2:	04 ff       	sbrs	r16, 4
    2cb4:	08 c0       	rjmp	.+16     	; 0x2cc6 <vfprintf+0x5e6>
    2cb6:	06 60       	ori	r16, 0x06	; 6
    2cb8:	06 c0       	rjmp	.+12     	; 0x2cc6 <vfprintf+0x5e6>
    2cba:	28 e0       	ldi	r18, 0x08	; 8
    2cbc:	30 e0       	ldi	r19, 0x00	; 0
    2cbe:	05 c0       	rjmp	.+10     	; 0x2cca <vfprintf+0x5ea>
    2cc0:	20 e1       	ldi	r18, 0x10	; 16
    2cc2:	30 e0       	ldi	r19, 0x00	; 0
    2cc4:	02 c0       	rjmp	.+4      	; 0x2cca <vfprintf+0x5ea>
    2cc6:	20 e1       	ldi	r18, 0x10	; 16
    2cc8:	32 e0       	ldi	r19, 0x02	; 2
    2cca:	07 ff       	sbrs	r16, 7
    2ccc:	0a c0       	rjmp	.+20     	; 0x2ce2 <vfprintf+0x602>
    2cce:	ca 01       	movw	r24, r20
    2cd0:	04 96       	adiw	r24, 0x04	; 4
    2cd2:	9d 87       	std	Y+13, r25	; 0x0d
    2cd4:	8c 87       	std	Y+12, r24	; 0x0c
    2cd6:	fa 01       	movw	r30, r20
    2cd8:	60 81       	ld	r22, Z
    2cda:	71 81       	ldd	r23, Z+1	; 0x01
    2cdc:	82 81       	ldd	r24, Z+2	; 0x02
    2cde:	93 81       	ldd	r25, Z+3	; 0x03
    2ce0:	09 c0       	rjmp	.+18     	; 0x2cf4 <vfprintf+0x614>
    2ce2:	ca 01       	movw	r24, r20
    2ce4:	02 96       	adiw	r24, 0x02	; 2
    2ce6:	9d 87       	std	Y+13, r25	; 0x0d
    2ce8:	8c 87       	std	Y+12, r24	; 0x0c
    2cea:	fa 01       	movw	r30, r20
    2cec:	60 81       	ld	r22, Z
    2cee:	71 81       	ldd	r23, Z+1	; 0x01
    2cf0:	80 e0       	ldi	r24, 0x00	; 0
    2cf2:	90 e0       	ldi	r25, 0x00	; 0
    2cf4:	a1 01       	movw	r20, r2
    2cf6:	0e 94 b3 1a 	call	0x3566	; 0x3566 <__ultoa_invert>
    2cfa:	98 2e       	mov	r9, r24
    2cfc:	92 18       	sub	r9, r2
    2cfe:	0f 77       	andi	r16, 0x7F	; 127
    2d00:	06 ff       	sbrs	r16, 6
    2d02:	09 c0       	rjmp	.+18     	; 0x2d16 <vfprintf+0x636>
    2d04:	0e 7f       	andi	r16, 0xFE	; 254
    2d06:	91 16       	cp	r9, r17
    2d08:	30 f4       	brcc	.+12     	; 0x2d16 <vfprintf+0x636>
    2d0a:	04 ff       	sbrs	r16, 4
    2d0c:	06 c0       	rjmp	.+12     	; 0x2d1a <vfprintf+0x63a>
    2d0e:	02 fd       	sbrc	r16, 2
    2d10:	04 c0       	rjmp	.+8      	; 0x2d1a <vfprintf+0x63a>
    2d12:	0f 7e       	andi	r16, 0xEF	; 239
    2d14:	02 c0       	rjmp	.+4      	; 0x2d1a <vfprintf+0x63a>
    2d16:	e9 2c       	mov	r14, r9
    2d18:	01 c0       	rjmp	.+2      	; 0x2d1c <vfprintf+0x63c>
    2d1a:	e1 2e       	mov	r14, r17
    2d1c:	80 2f       	mov	r24, r16
    2d1e:	90 e0       	ldi	r25, 0x00	; 0
    2d20:	04 ff       	sbrs	r16, 4
    2d22:	0c c0       	rjmp	.+24     	; 0x2d3c <vfprintf+0x65c>
    2d24:	fe 01       	movw	r30, r28
    2d26:	e9 0d       	add	r30, r9
    2d28:	f1 1d       	adc	r31, r1
    2d2a:	20 81       	ld	r18, Z
    2d2c:	20 33       	cpi	r18, 0x30	; 48
    2d2e:	11 f4       	brne	.+4      	; 0x2d34 <vfprintf+0x654>
    2d30:	09 7e       	andi	r16, 0xE9	; 233
    2d32:	09 c0       	rjmp	.+18     	; 0x2d46 <vfprintf+0x666>
    2d34:	e3 94       	inc	r14
    2d36:	02 ff       	sbrs	r16, 2
    2d38:	06 c0       	rjmp	.+12     	; 0x2d46 <vfprintf+0x666>
    2d3a:	04 c0       	rjmp	.+8      	; 0x2d44 <vfprintf+0x664>
    2d3c:	86 78       	andi	r24, 0x86	; 134
    2d3e:	90 70       	andi	r25, 0x00	; 0
    2d40:	00 97       	sbiw	r24, 0x00	; 0
    2d42:	09 f0       	breq	.+2      	; 0x2d46 <vfprintf+0x666>
    2d44:	e3 94       	inc	r14
    2d46:	a0 2e       	mov	r10, r16
    2d48:	bb 24       	eor	r11, r11
    2d4a:	03 fd       	sbrc	r16, 3
    2d4c:	14 c0       	rjmp	.+40     	; 0x2d76 <vfprintf+0x696>
    2d4e:	00 ff       	sbrs	r16, 0
    2d50:	0f c0       	rjmp	.+30     	; 0x2d70 <vfprintf+0x690>
    2d52:	ef 14       	cp	r14, r15
    2d54:	28 f4       	brcc	.+10     	; 0x2d60 <vfprintf+0x680>
    2d56:	19 2d       	mov	r17, r9
    2d58:	1f 0d       	add	r17, r15
    2d5a:	1e 19       	sub	r17, r14
    2d5c:	ef 2c       	mov	r14, r15
    2d5e:	08 c0       	rjmp	.+16     	; 0x2d70 <vfprintf+0x690>
    2d60:	19 2d       	mov	r17, r9
    2d62:	06 c0       	rjmp	.+12     	; 0x2d70 <vfprintf+0x690>
    2d64:	80 e2       	ldi	r24, 0x20	; 32
    2d66:	90 e0       	ldi	r25, 0x00	; 0
    2d68:	b6 01       	movw	r22, r12
    2d6a:	0e 94 57 1a 	call	0x34ae	; 0x34ae <fputc>
    2d6e:	e3 94       	inc	r14
    2d70:	ef 14       	cp	r14, r15
    2d72:	c0 f3       	brcs	.-16     	; 0x2d64 <vfprintf+0x684>
    2d74:	04 c0       	rjmp	.+8      	; 0x2d7e <vfprintf+0x69e>
    2d76:	ef 14       	cp	r14, r15
    2d78:	10 f4       	brcc	.+4      	; 0x2d7e <vfprintf+0x69e>
    2d7a:	fe 18       	sub	r15, r14
    2d7c:	01 c0       	rjmp	.+2      	; 0x2d80 <vfprintf+0x6a0>
    2d7e:	ff 24       	eor	r15, r15
    2d80:	a4 fe       	sbrs	r10, 4
    2d82:	0f c0       	rjmp	.+30     	; 0x2da2 <vfprintf+0x6c2>
    2d84:	80 e3       	ldi	r24, 0x30	; 48
    2d86:	90 e0       	ldi	r25, 0x00	; 0
    2d88:	b6 01       	movw	r22, r12
    2d8a:	0e 94 57 1a 	call	0x34ae	; 0x34ae <fputc>
    2d8e:	a2 fe       	sbrs	r10, 2
    2d90:	1f c0       	rjmp	.+62     	; 0x2dd0 <vfprintf+0x6f0>
    2d92:	a1 fe       	sbrs	r10, 1
    2d94:	03 c0       	rjmp	.+6      	; 0x2d9c <vfprintf+0x6bc>
    2d96:	88 e5       	ldi	r24, 0x58	; 88
    2d98:	90 e0       	ldi	r25, 0x00	; 0
    2d9a:	10 c0       	rjmp	.+32     	; 0x2dbc <vfprintf+0x6dc>
    2d9c:	88 e7       	ldi	r24, 0x78	; 120
    2d9e:	90 e0       	ldi	r25, 0x00	; 0
    2da0:	0d c0       	rjmp	.+26     	; 0x2dbc <vfprintf+0x6dc>
    2da2:	c5 01       	movw	r24, r10
    2da4:	86 78       	andi	r24, 0x86	; 134
    2da6:	90 70       	andi	r25, 0x00	; 0
    2da8:	00 97       	sbiw	r24, 0x00	; 0
    2daa:	91 f0       	breq	.+36     	; 0x2dd0 <vfprintf+0x6f0>
    2dac:	a1 fc       	sbrc	r10, 1
    2dae:	02 c0       	rjmp	.+4      	; 0x2db4 <vfprintf+0x6d4>
    2db0:	80 e2       	ldi	r24, 0x20	; 32
    2db2:	01 c0       	rjmp	.+2      	; 0x2db6 <vfprintf+0x6d6>
    2db4:	8b e2       	ldi	r24, 0x2B	; 43
    2db6:	07 fd       	sbrc	r16, 7
    2db8:	8d e2       	ldi	r24, 0x2D	; 45
    2dba:	90 e0       	ldi	r25, 0x00	; 0
    2dbc:	b6 01       	movw	r22, r12
    2dbe:	0e 94 57 1a 	call	0x34ae	; 0x34ae <fputc>
    2dc2:	06 c0       	rjmp	.+12     	; 0x2dd0 <vfprintf+0x6f0>
    2dc4:	80 e3       	ldi	r24, 0x30	; 48
    2dc6:	90 e0       	ldi	r25, 0x00	; 0
    2dc8:	b6 01       	movw	r22, r12
    2dca:	0e 94 57 1a 	call	0x34ae	; 0x34ae <fputc>
    2dce:	11 50       	subi	r17, 0x01	; 1
    2dd0:	91 16       	cp	r9, r17
    2dd2:	c0 f3       	brcs	.-16     	; 0x2dc4 <vfprintf+0x6e4>
    2dd4:	9a 94       	dec	r9
    2dd6:	f1 01       	movw	r30, r2
    2dd8:	e9 0d       	add	r30, r9
    2dda:	f1 1d       	adc	r31, r1
    2ddc:	80 81       	ld	r24, Z
    2dde:	90 e0       	ldi	r25, 0x00	; 0
    2de0:	b6 01       	movw	r22, r12
    2de2:	0e 94 57 1a 	call	0x34ae	; 0x34ae <fputc>
    2de6:	99 20       	and	r9, r9
    2de8:	a9 f7       	brne	.-22     	; 0x2dd4 <vfprintf+0x6f4>
    2dea:	06 c0       	rjmp	.+12     	; 0x2df8 <vfprintf+0x718>
    2dec:	80 e2       	ldi	r24, 0x20	; 32
    2dee:	90 e0       	ldi	r25, 0x00	; 0
    2df0:	b6 01       	movw	r22, r12
    2df2:	0e 94 57 1a 	call	0x34ae	; 0x34ae <fputc>
    2df6:	fa 94       	dec	r15
    2df8:	ff 20       	and	r15, r15
    2dfa:	c1 f7       	brne	.-16     	; 0x2dec <vfprintf+0x70c>
    2dfc:	95 cc       	rjmp	.-1750   	; 0x2728 <vfprintf+0x48>
    2dfe:	f6 01       	movw	r30, r12
    2e00:	26 81       	ldd	r18, Z+6	; 0x06
    2e02:	37 81       	ldd	r19, Z+7	; 0x07
    2e04:	02 c0       	rjmp	.+4      	; 0x2e0a <vfprintf+0x72a>
    2e06:	2f ef       	ldi	r18, 0xFF	; 255
    2e08:	3f ef       	ldi	r19, 0xFF	; 255
    2e0a:	c9 01       	movw	r24, r18
    2e0c:	63 96       	adiw	r28, 0x13	; 19
    2e0e:	0f b6       	in	r0, 0x3f	; 63
    2e10:	f8 94       	cli
    2e12:	de bf       	out	0x3e, r29	; 62
    2e14:	0f be       	out	0x3f, r0	; 63
    2e16:	cd bf       	out	0x3d, r28	; 61
    2e18:	cf 91       	pop	r28
    2e1a:	df 91       	pop	r29
    2e1c:	1f 91       	pop	r17
    2e1e:	0f 91       	pop	r16
    2e20:	ff 90       	pop	r15
    2e22:	ef 90       	pop	r14
    2e24:	df 90       	pop	r13
    2e26:	cf 90       	pop	r12
    2e28:	bf 90       	pop	r11
    2e2a:	af 90       	pop	r10
    2e2c:	9f 90       	pop	r9
    2e2e:	8f 90       	pop	r8
    2e30:	7f 90       	pop	r7
    2e32:	6f 90       	pop	r6
    2e34:	5f 90       	pop	r5
    2e36:	4f 90       	pop	r4
    2e38:	3f 90       	pop	r3
    2e3a:	2f 90       	pop	r2
    2e3c:	08 95       	ret

00002e3e <__subsf3>:
    2e3e:	50 58       	subi	r21, 0x80	; 128

00002e40 <__addsf3>:
    2e40:	bb 27       	eor	r27, r27
    2e42:	aa 27       	eor	r26, r26
    2e44:	0e d0       	rcall	.+28     	; 0x2e62 <__addsf3x>
    2e46:	4d c1       	rjmp	.+666    	; 0x30e2 <__fp_round>
    2e48:	3e d1       	rcall	.+636    	; 0x30c6 <__fp_pscA>
    2e4a:	30 f0       	brcs	.+12     	; 0x2e58 <__addsf3+0x18>
    2e4c:	43 d1       	rcall	.+646    	; 0x30d4 <__fp_pscB>
    2e4e:	20 f0       	brcs	.+8      	; 0x2e58 <__addsf3+0x18>
    2e50:	31 f4       	brne	.+12     	; 0x2e5e <__addsf3+0x1e>
    2e52:	9f 3f       	cpi	r25, 0xFF	; 255
    2e54:	11 f4       	brne	.+4      	; 0x2e5a <__addsf3+0x1a>
    2e56:	1e f4       	brtc	.+6      	; 0x2e5e <__addsf3+0x1e>
    2e58:	33 c1       	rjmp	.+614    	; 0x30c0 <__fp_nan>
    2e5a:	0e f4       	brtc	.+2      	; 0x2e5e <__addsf3+0x1e>
    2e5c:	e0 95       	com	r30
    2e5e:	e7 fb       	bst	r30, 7
    2e60:	29 c1       	rjmp	.+594    	; 0x30b4 <__fp_inf>

00002e62 <__addsf3x>:
    2e62:	e9 2f       	mov	r30, r25
    2e64:	4f d1       	rcall	.+670    	; 0x3104 <__fp_split3>
    2e66:	80 f3       	brcs	.-32     	; 0x2e48 <__addsf3+0x8>
    2e68:	ba 17       	cp	r27, r26
    2e6a:	62 07       	cpc	r22, r18
    2e6c:	73 07       	cpc	r23, r19
    2e6e:	84 07       	cpc	r24, r20
    2e70:	95 07       	cpc	r25, r21
    2e72:	18 f0       	brcs	.+6      	; 0x2e7a <__addsf3x+0x18>
    2e74:	71 f4       	brne	.+28     	; 0x2e92 <__addsf3x+0x30>
    2e76:	9e f5       	brtc	.+102    	; 0x2ede <__addsf3x+0x7c>
    2e78:	67 c1       	rjmp	.+718    	; 0x3148 <__fp_zero>
    2e7a:	0e f4       	brtc	.+2      	; 0x2e7e <__addsf3x+0x1c>
    2e7c:	e0 95       	com	r30
    2e7e:	0b 2e       	mov	r0, r27
    2e80:	ba 2f       	mov	r27, r26
    2e82:	a0 2d       	mov	r26, r0
    2e84:	0b 01       	movw	r0, r22
    2e86:	b9 01       	movw	r22, r18
    2e88:	90 01       	movw	r18, r0
    2e8a:	0c 01       	movw	r0, r24
    2e8c:	ca 01       	movw	r24, r20
    2e8e:	a0 01       	movw	r20, r0
    2e90:	11 24       	eor	r1, r1
    2e92:	ff 27       	eor	r31, r31
    2e94:	59 1b       	sub	r21, r25
    2e96:	99 f0       	breq	.+38     	; 0x2ebe <__addsf3x+0x5c>
    2e98:	59 3f       	cpi	r21, 0xF9	; 249
    2e9a:	50 f4       	brcc	.+20     	; 0x2eb0 <__addsf3x+0x4e>
    2e9c:	50 3e       	cpi	r21, 0xE0	; 224
    2e9e:	68 f1       	brcs	.+90     	; 0x2efa <__addsf3x+0x98>
    2ea0:	1a 16       	cp	r1, r26
    2ea2:	f0 40       	sbci	r31, 0x00	; 0
    2ea4:	a2 2f       	mov	r26, r18
    2ea6:	23 2f       	mov	r18, r19
    2ea8:	34 2f       	mov	r19, r20
    2eaa:	44 27       	eor	r20, r20
    2eac:	58 5f       	subi	r21, 0xF8	; 248
    2eae:	f3 cf       	rjmp	.-26     	; 0x2e96 <__addsf3x+0x34>
    2eb0:	46 95       	lsr	r20
    2eb2:	37 95       	ror	r19
    2eb4:	27 95       	ror	r18
    2eb6:	a7 95       	ror	r26
    2eb8:	f0 40       	sbci	r31, 0x00	; 0
    2eba:	53 95       	inc	r21
    2ebc:	c9 f7       	brne	.-14     	; 0x2eb0 <__addsf3x+0x4e>
    2ebe:	7e f4       	brtc	.+30     	; 0x2ede <__addsf3x+0x7c>
    2ec0:	1f 16       	cp	r1, r31
    2ec2:	ba 0b       	sbc	r27, r26
    2ec4:	62 0b       	sbc	r22, r18
    2ec6:	73 0b       	sbc	r23, r19
    2ec8:	84 0b       	sbc	r24, r20
    2eca:	ba f0       	brmi	.+46     	; 0x2efa <__addsf3x+0x98>
    2ecc:	91 50       	subi	r25, 0x01	; 1
    2ece:	a1 f0       	breq	.+40     	; 0x2ef8 <__addsf3x+0x96>
    2ed0:	ff 0f       	add	r31, r31
    2ed2:	bb 1f       	adc	r27, r27
    2ed4:	66 1f       	adc	r22, r22
    2ed6:	77 1f       	adc	r23, r23
    2ed8:	88 1f       	adc	r24, r24
    2eda:	c2 f7       	brpl	.-16     	; 0x2ecc <__addsf3x+0x6a>
    2edc:	0e c0       	rjmp	.+28     	; 0x2efa <__addsf3x+0x98>
    2ede:	ba 0f       	add	r27, r26
    2ee0:	62 1f       	adc	r22, r18
    2ee2:	73 1f       	adc	r23, r19
    2ee4:	84 1f       	adc	r24, r20
    2ee6:	48 f4       	brcc	.+18     	; 0x2efa <__addsf3x+0x98>
    2ee8:	87 95       	ror	r24
    2eea:	77 95       	ror	r23
    2eec:	67 95       	ror	r22
    2eee:	b7 95       	ror	r27
    2ef0:	f7 95       	ror	r31
    2ef2:	9e 3f       	cpi	r25, 0xFE	; 254
    2ef4:	08 f0       	brcs	.+2      	; 0x2ef8 <__addsf3x+0x96>
    2ef6:	b3 cf       	rjmp	.-154    	; 0x2e5e <__addsf3+0x1e>
    2ef8:	93 95       	inc	r25
    2efa:	88 0f       	add	r24, r24
    2efc:	08 f0       	brcs	.+2      	; 0x2f00 <__addsf3x+0x9e>
    2efe:	99 27       	eor	r25, r25
    2f00:	ee 0f       	add	r30, r30
    2f02:	97 95       	ror	r25
    2f04:	87 95       	ror	r24
    2f06:	08 95       	ret

00002f08 <__divsf3>:
    2f08:	0c d0       	rcall	.+24     	; 0x2f22 <__divsf3x>
    2f0a:	eb c0       	rjmp	.+470    	; 0x30e2 <__fp_round>
    2f0c:	e3 d0       	rcall	.+454    	; 0x30d4 <__fp_pscB>
    2f0e:	40 f0       	brcs	.+16     	; 0x2f20 <__divsf3+0x18>
    2f10:	da d0       	rcall	.+436    	; 0x30c6 <__fp_pscA>
    2f12:	30 f0       	brcs	.+12     	; 0x2f20 <__divsf3+0x18>
    2f14:	21 f4       	brne	.+8      	; 0x2f1e <__divsf3+0x16>
    2f16:	5f 3f       	cpi	r21, 0xFF	; 255
    2f18:	19 f0       	breq	.+6      	; 0x2f20 <__divsf3+0x18>
    2f1a:	cc c0       	rjmp	.+408    	; 0x30b4 <__fp_inf>
    2f1c:	51 11       	cpse	r21, r1
    2f1e:	15 c1       	rjmp	.+554    	; 0x314a <__fp_szero>
    2f20:	cf c0       	rjmp	.+414    	; 0x30c0 <__fp_nan>

00002f22 <__divsf3x>:
    2f22:	f0 d0       	rcall	.+480    	; 0x3104 <__fp_split3>
    2f24:	98 f3       	brcs	.-26     	; 0x2f0c <__divsf3+0x4>

00002f26 <__divsf3_pse>:
    2f26:	99 23       	and	r25, r25
    2f28:	c9 f3       	breq	.-14     	; 0x2f1c <__divsf3+0x14>
    2f2a:	55 23       	and	r21, r21
    2f2c:	b1 f3       	breq	.-20     	; 0x2f1a <__divsf3+0x12>
    2f2e:	95 1b       	sub	r25, r21
    2f30:	55 0b       	sbc	r21, r21
    2f32:	bb 27       	eor	r27, r27
    2f34:	aa 27       	eor	r26, r26
    2f36:	62 17       	cp	r22, r18
    2f38:	73 07       	cpc	r23, r19
    2f3a:	84 07       	cpc	r24, r20
    2f3c:	38 f0       	brcs	.+14     	; 0x2f4c <__divsf3_pse+0x26>
    2f3e:	9f 5f       	subi	r25, 0xFF	; 255
    2f40:	5f 4f       	sbci	r21, 0xFF	; 255
    2f42:	22 0f       	add	r18, r18
    2f44:	33 1f       	adc	r19, r19
    2f46:	44 1f       	adc	r20, r20
    2f48:	aa 1f       	adc	r26, r26
    2f4a:	a9 f3       	breq	.-22     	; 0x2f36 <__divsf3_pse+0x10>
    2f4c:	33 d0       	rcall	.+102    	; 0x2fb4 <__divsf3_pse+0x8e>
    2f4e:	0e 2e       	mov	r0, r30
    2f50:	3a f0       	brmi	.+14     	; 0x2f60 <__divsf3_pse+0x3a>
    2f52:	e0 e8       	ldi	r30, 0x80	; 128
    2f54:	30 d0       	rcall	.+96     	; 0x2fb6 <__divsf3_pse+0x90>
    2f56:	91 50       	subi	r25, 0x01	; 1
    2f58:	50 40       	sbci	r21, 0x00	; 0
    2f5a:	e6 95       	lsr	r30
    2f5c:	00 1c       	adc	r0, r0
    2f5e:	ca f7       	brpl	.-14     	; 0x2f52 <__divsf3_pse+0x2c>
    2f60:	29 d0       	rcall	.+82     	; 0x2fb4 <__divsf3_pse+0x8e>
    2f62:	fe 2f       	mov	r31, r30
    2f64:	27 d0       	rcall	.+78     	; 0x2fb4 <__divsf3_pse+0x8e>
    2f66:	66 0f       	add	r22, r22
    2f68:	77 1f       	adc	r23, r23
    2f6a:	88 1f       	adc	r24, r24
    2f6c:	bb 1f       	adc	r27, r27
    2f6e:	26 17       	cp	r18, r22
    2f70:	37 07       	cpc	r19, r23
    2f72:	48 07       	cpc	r20, r24
    2f74:	ab 07       	cpc	r26, r27
    2f76:	b0 e8       	ldi	r27, 0x80	; 128
    2f78:	09 f0       	breq	.+2      	; 0x2f7c <__divsf3_pse+0x56>
    2f7a:	bb 0b       	sbc	r27, r27
    2f7c:	80 2d       	mov	r24, r0
    2f7e:	bf 01       	movw	r22, r30
    2f80:	ff 27       	eor	r31, r31
    2f82:	93 58       	subi	r25, 0x83	; 131
    2f84:	5f 4f       	sbci	r21, 0xFF	; 255
    2f86:	2a f0       	brmi	.+10     	; 0x2f92 <__divsf3_pse+0x6c>
    2f88:	9e 3f       	cpi	r25, 0xFE	; 254
    2f8a:	51 05       	cpc	r21, r1
    2f8c:	68 f0       	brcs	.+26     	; 0x2fa8 <__divsf3_pse+0x82>
    2f8e:	92 c0       	rjmp	.+292    	; 0x30b4 <__fp_inf>
    2f90:	dc c0       	rjmp	.+440    	; 0x314a <__fp_szero>
    2f92:	5f 3f       	cpi	r21, 0xFF	; 255
    2f94:	ec f3       	brlt	.-6      	; 0x2f90 <__divsf3_pse+0x6a>
    2f96:	98 3e       	cpi	r25, 0xE8	; 232
    2f98:	dc f3       	brlt	.-10     	; 0x2f90 <__divsf3_pse+0x6a>
    2f9a:	86 95       	lsr	r24
    2f9c:	77 95       	ror	r23
    2f9e:	67 95       	ror	r22
    2fa0:	b7 95       	ror	r27
    2fa2:	f7 95       	ror	r31
    2fa4:	9f 5f       	subi	r25, 0xFF	; 255
    2fa6:	c9 f7       	brne	.-14     	; 0x2f9a <__divsf3_pse+0x74>
    2fa8:	88 0f       	add	r24, r24
    2faa:	91 1d       	adc	r25, r1
    2fac:	96 95       	lsr	r25
    2fae:	87 95       	ror	r24
    2fb0:	97 f9       	bld	r25, 7
    2fb2:	08 95       	ret
    2fb4:	e1 e0       	ldi	r30, 0x01	; 1
    2fb6:	66 0f       	add	r22, r22
    2fb8:	77 1f       	adc	r23, r23
    2fba:	88 1f       	adc	r24, r24
    2fbc:	bb 1f       	adc	r27, r27
    2fbe:	62 17       	cp	r22, r18
    2fc0:	73 07       	cpc	r23, r19
    2fc2:	84 07       	cpc	r24, r20
    2fc4:	ba 07       	cpc	r27, r26
    2fc6:	20 f0       	brcs	.+8      	; 0x2fd0 <__divsf3_pse+0xaa>
    2fc8:	62 1b       	sub	r22, r18
    2fca:	73 0b       	sbc	r23, r19
    2fcc:	84 0b       	sbc	r24, r20
    2fce:	ba 0b       	sbc	r27, r26
    2fd0:	ee 1f       	adc	r30, r30
    2fd2:	88 f7       	brcc	.-30     	; 0x2fb6 <__divsf3_pse+0x90>
    2fd4:	e0 95       	com	r30
    2fd6:	08 95       	ret

00002fd8 <__fixsfsi>:
    2fd8:	04 d0       	rcall	.+8      	; 0x2fe2 <__fixunssfsi>
    2fda:	68 94       	set
    2fdc:	b1 11       	cpse	r27, r1
    2fde:	b5 c0       	rjmp	.+362    	; 0x314a <__fp_szero>
    2fe0:	08 95       	ret

00002fe2 <__fixunssfsi>:
    2fe2:	98 d0       	rcall	.+304    	; 0x3114 <__fp_splitA>
    2fe4:	88 f0       	brcs	.+34     	; 0x3008 <__fixunssfsi+0x26>
    2fe6:	9f 57       	subi	r25, 0x7F	; 127
    2fe8:	90 f0       	brcs	.+36     	; 0x300e <__fixunssfsi+0x2c>
    2fea:	b9 2f       	mov	r27, r25
    2fec:	99 27       	eor	r25, r25
    2fee:	b7 51       	subi	r27, 0x17	; 23
    2ff0:	a0 f0       	brcs	.+40     	; 0x301a <__fixunssfsi+0x38>
    2ff2:	d1 f0       	breq	.+52     	; 0x3028 <__fixunssfsi+0x46>
    2ff4:	66 0f       	add	r22, r22
    2ff6:	77 1f       	adc	r23, r23
    2ff8:	88 1f       	adc	r24, r24
    2ffa:	99 1f       	adc	r25, r25
    2ffc:	1a f0       	brmi	.+6      	; 0x3004 <__fixunssfsi+0x22>
    2ffe:	ba 95       	dec	r27
    3000:	c9 f7       	brne	.-14     	; 0x2ff4 <__fixunssfsi+0x12>
    3002:	12 c0       	rjmp	.+36     	; 0x3028 <__fixunssfsi+0x46>
    3004:	b1 30       	cpi	r27, 0x01	; 1
    3006:	81 f0       	breq	.+32     	; 0x3028 <__fixunssfsi+0x46>
    3008:	9f d0       	rcall	.+318    	; 0x3148 <__fp_zero>
    300a:	b1 e0       	ldi	r27, 0x01	; 1
    300c:	08 95       	ret
    300e:	9c c0       	rjmp	.+312    	; 0x3148 <__fp_zero>
    3010:	67 2f       	mov	r22, r23
    3012:	78 2f       	mov	r23, r24
    3014:	88 27       	eor	r24, r24
    3016:	b8 5f       	subi	r27, 0xF8	; 248
    3018:	39 f0       	breq	.+14     	; 0x3028 <__fixunssfsi+0x46>
    301a:	b9 3f       	cpi	r27, 0xF9	; 249
    301c:	cc f3       	brlt	.-14     	; 0x3010 <__fixunssfsi+0x2e>
    301e:	86 95       	lsr	r24
    3020:	77 95       	ror	r23
    3022:	67 95       	ror	r22
    3024:	b3 95       	inc	r27
    3026:	d9 f7       	brne	.-10     	; 0x301e <__fixunssfsi+0x3c>
    3028:	3e f4       	brtc	.+14     	; 0x3038 <__fixunssfsi+0x56>
    302a:	90 95       	com	r25
    302c:	80 95       	com	r24
    302e:	70 95       	com	r23
    3030:	61 95       	neg	r22
    3032:	7f 4f       	sbci	r23, 0xFF	; 255
    3034:	8f 4f       	sbci	r24, 0xFF	; 255
    3036:	9f 4f       	sbci	r25, 0xFF	; 255
    3038:	08 95       	ret

0000303a <__floatunsisf>:
    303a:	e8 94       	clt
    303c:	09 c0       	rjmp	.+18     	; 0x3050 <__floatsisf+0x12>

0000303e <__floatsisf>:
    303e:	97 fb       	bst	r25, 7
    3040:	3e f4       	brtc	.+14     	; 0x3050 <__floatsisf+0x12>
    3042:	90 95       	com	r25
    3044:	80 95       	com	r24
    3046:	70 95       	com	r23
    3048:	61 95       	neg	r22
    304a:	7f 4f       	sbci	r23, 0xFF	; 255
    304c:	8f 4f       	sbci	r24, 0xFF	; 255
    304e:	9f 4f       	sbci	r25, 0xFF	; 255
    3050:	99 23       	and	r25, r25
    3052:	a9 f0       	breq	.+42     	; 0x307e <__floatsisf+0x40>
    3054:	f9 2f       	mov	r31, r25
    3056:	96 e9       	ldi	r25, 0x96	; 150
    3058:	bb 27       	eor	r27, r27
    305a:	93 95       	inc	r25
    305c:	f6 95       	lsr	r31
    305e:	87 95       	ror	r24
    3060:	77 95       	ror	r23
    3062:	67 95       	ror	r22
    3064:	b7 95       	ror	r27
    3066:	f1 11       	cpse	r31, r1
    3068:	f8 cf       	rjmp	.-16     	; 0x305a <__floatsisf+0x1c>
    306a:	fa f4       	brpl	.+62     	; 0x30aa <__floatsisf+0x6c>
    306c:	bb 0f       	add	r27, r27
    306e:	11 f4       	brne	.+4      	; 0x3074 <__floatsisf+0x36>
    3070:	60 ff       	sbrs	r22, 0
    3072:	1b c0       	rjmp	.+54     	; 0x30aa <__floatsisf+0x6c>
    3074:	6f 5f       	subi	r22, 0xFF	; 255
    3076:	7f 4f       	sbci	r23, 0xFF	; 255
    3078:	8f 4f       	sbci	r24, 0xFF	; 255
    307a:	9f 4f       	sbci	r25, 0xFF	; 255
    307c:	16 c0       	rjmp	.+44     	; 0x30aa <__floatsisf+0x6c>
    307e:	88 23       	and	r24, r24
    3080:	11 f0       	breq	.+4      	; 0x3086 <__floatsisf+0x48>
    3082:	96 e9       	ldi	r25, 0x96	; 150
    3084:	11 c0       	rjmp	.+34     	; 0x30a8 <__floatsisf+0x6a>
    3086:	77 23       	and	r23, r23
    3088:	21 f0       	breq	.+8      	; 0x3092 <__floatsisf+0x54>
    308a:	9e e8       	ldi	r25, 0x8E	; 142
    308c:	87 2f       	mov	r24, r23
    308e:	76 2f       	mov	r23, r22
    3090:	05 c0       	rjmp	.+10     	; 0x309c <__floatsisf+0x5e>
    3092:	66 23       	and	r22, r22
    3094:	71 f0       	breq	.+28     	; 0x30b2 <__floatsisf+0x74>
    3096:	96 e8       	ldi	r25, 0x86	; 134
    3098:	86 2f       	mov	r24, r22
    309a:	70 e0       	ldi	r23, 0x00	; 0
    309c:	60 e0       	ldi	r22, 0x00	; 0
    309e:	2a f0       	brmi	.+10     	; 0x30aa <__floatsisf+0x6c>
    30a0:	9a 95       	dec	r25
    30a2:	66 0f       	add	r22, r22
    30a4:	77 1f       	adc	r23, r23
    30a6:	88 1f       	adc	r24, r24
    30a8:	da f7       	brpl	.-10     	; 0x30a0 <__floatsisf+0x62>
    30aa:	88 0f       	add	r24, r24
    30ac:	96 95       	lsr	r25
    30ae:	87 95       	ror	r24
    30b0:	97 f9       	bld	r25, 7
    30b2:	08 95       	ret

000030b4 <__fp_inf>:
    30b4:	97 f9       	bld	r25, 7
    30b6:	9f 67       	ori	r25, 0x7F	; 127
    30b8:	80 e8       	ldi	r24, 0x80	; 128
    30ba:	70 e0       	ldi	r23, 0x00	; 0
    30bc:	60 e0       	ldi	r22, 0x00	; 0
    30be:	08 95       	ret

000030c0 <__fp_nan>:
    30c0:	9f ef       	ldi	r25, 0xFF	; 255
    30c2:	80 ec       	ldi	r24, 0xC0	; 192
    30c4:	08 95       	ret

000030c6 <__fp_pscA>:
    30c6:	00 24       	eor	r0, r0
    30c8:	0a 94       	dec	r0
    30ca:	16 16       	cp	r1, r22
    30cc:	17 06       	cpc	r1, r23
    30ce:	18 06       	cpc	r1, r24
    30d0:	09 06       	cpc	r0, r25
    30d2:	08 95       	ret

000030d4 <__fp_pscB>:
    30d4:	00 24       	eor	r0, r0
    30d6:	0a 94       	dec	r0
    30d8:	12 16       	cp	r1, r18
    30da:	13 06       	cpc	r1, r19
    30dc:	14 06       	cpc	r1, r20
    30de:	05 06       	cpc	r0, r21
    30e0:	08 95       	ret

000030e2 <__fp_round>:
    30e2:	09 2e       	mov	r0, r25
    30e4:	03 94       	inc	r0
    30e6:	00 0c       	add	r0, r0
    30e8:	11 f4       	brne	.+4      	; 0x30ee <__fp_round+0xc>
    30ea:	88 23       	and	r24, r24
    30ec:	52 f0       	brmi	.+20     	; 0x3102 <__fp_round+0x20>
    30ee:	bb 0f       	add	r27, r27
    30f0:	40 f4       	brcc	.+16     	; 0x3102 <__fp_round+0x20>
    30f2:	bf 2b       	or	r27, r31
    30f4:	11 f4       	brne	.+4      	; 0x30fa <__fp_round+0x18>
    30f6:	60 ff       	sbrs	r22, 0
    30f8:	04 c0       	rjmp	.+8      	; 0x3102 <__fp_round+0x20>
    30fa:	6f 5f       	subi	r22, 0xFF	; 255
    30fc:	7f 4f       	sbci	r23, 0xFF	; 255
    30fe:	8f 4f       	sbci	r24, 0xFF	; 255
    3100:	9f 4f       	sbci	r25, 0xFF	; 255
    3102:	08 95       	ret

00003104 <__fp_split3>:
    3104:	57 fd       	sbrc	r21, 7
    3106:	90 58       	subi	r25, 0x80	; 128
    3108:	44 0f       	add	r20, r20
    310a:	55 1f       	adc	r21, r21
    310c:	59 f0       	breq	.+22     	; 0x3124 <__fp_splitA+0x10>
    310e:	5f 3f       	cpi	r21, 0xFF	; 255
    3110:	71 f0       	breq	.+28     	; 0x312e <__fp_splitA+0x1a>
    3112:	47 95       	ror	r20

00003114 <__fp_splitA>:
    3114:	88 0f       	add	r24, r24
    3116:	97 fb       	bst	r25, 7
    3118:	99 1f       	adc	r25, r25
    311a:	61 f0       	breq	.+24     	; 0x3134 <__fp_splitA+0x20>
    311c:	9f 3f       	cpi	r25, 0xFF	; 255
    311e:	79 f0       	breq	.+30     	; 0x313e <__fp_splitA+0x2a>
    3120:	87 95       	ror	r24
    3122:	08 95       	ret
    3124:	12 16       	cp	r1, r18
    3126:	13 06       	cpc	r1, r19
    3128:	14 06       	cpc	r1, r20
    312a:	55 1f       	adc	r21, r21
    312c:	f2 cf       	rjmp	.-28     	; 0x3112 <__fp_split3+0xe>
    312e:	46 95       	lsr	r20
    3130:	f1 df       	rcall	.-30     	; 0x3114 <__fp_splitA>
    3132:	08 c0       	rjmp	.+16     	; 0x3144 <__fp_splitA+0x30>
    3134:	16 16       	cp	r1, r22
    3136:	17 06       	cpc	r1, r23
    3138:	18 06       	cpc	r1, r24
    313a:	99 1f       	adc	r25, r25
    313c:	f1 cf       	rjmp	.-30     	; 0x3120 <__fp_splitA+0xc>
    313e:	86 95       	lsr	r24
    3140:	71 05       	cpc	r23, r1
    3142:	61 05       	cpc	r22, r1
    3144:	08 94       	sec
    3146:	08 95       	ret

00003148 <__fp_zero>:
    3148:	e8 94       	clt

0000314a <__fp_szero>:
    314a:	bb 27       	eor	r27, r27
    314c:	66 27       	eor	r22, r22
    314e:	77 27       	eor	r23, r23
    3150:	cb 01       	movw	r24, r22
    3152:	97 f9       	bld	r25, 7
    3154:	08 95       	ret

00003156 <__gesf2>:
    3156:	66 d0       	rcall	.+204    	; 0x3224 <__fp_cmp>
    3158:	08 f4       	brcc	.+2      	; 0x315c <__gesf2+0x6>
    315a:	8f ef       	ldi	r24, 0xFF	; 255
    315c:	08 95       	ret

0000315e <__mulsf3>:
    315e:	0b d0       	rcall	.+22     	; 0x3176 <__mulsf3x>
    3160:	c0 cf       	rjmp	.-128    	; 0x30e2 <__fp_round>
    3162:	b1 df       	rcall	.-158    	; 0x30c6 <__fp_pscA>
    3164:	28 f0       	brcs	.+10     	; 0x3170 <__mulsf3+0x12>
    3166:	b6 df       	rcall	.-148    	; 0x30d4 <__fp_pscB>
    3168:	18 f0       	brcs	.+6      	; 0x3170 <__mulsf3+0x12>
    316a:	95 23       	and	r25, r21
    316c:	09 f0       	breq	.+2      	; 0x3170 <__mulsf3+0x12>
    316e:	a2 cf       	rjmp	.-188    	; 0x30b4 <__fp_inf>
    3170:	a7 cf       	rjmp	.-178    	; 0x30c0 <__fp_nan>
    3172:	11 24       	eor	r1, r1
    3174:	ea cf       	rjmp	.-44     	; 0x314a <__fp_szero>

00003176 <__mulsf3x>:
    3176:	c6 df       	rcall	.-116    	; 0x3104 <__fp_split3>
    3178:	a0 f3       	brcs	.-24     	; 0x3162 <__mulsf3+0x4>

0000317a <__mulsf3_pse>:
    317a:	95 9f       	mul	r25, r21
    317c:	d1 f3       	breq	.-12     	; 0x3172 <__mulsf3+0x14>
    317e:	95 0f       	add	r25, r21
    3180:	50 e0       	ldi	r21, 0x00	; 0
    3182:	55 1f       	adc	r21, r21
    3184:	62 9f       	mul	r22, r18
    3186:	f0 01       	movw	r30, r0
    3188:	72 9f       	mul	r23, r18
    318a:	bb 27       	eor	r27, r27
    318c:	f0 0d       	add	r31, r0
    318e:	b1 1d       	adc	r27, r1
    3190:	63 9f       	mul	r22, r19
    3192:	aa 27       	eor	r26, r26
    3194:	f0 0d       	add	r31, r0
    3196:	b1 1d       	adc	r27, r1
    3198:	aa 1f       	adc	r26, r26
    319a:	64 9f       	mul	r22, r20
    319c:	66 27       	eor	r22, r22
    319e:	b0 0d       	add	r27, r0
    31a0:	a1 1d       	adc	r26, r1
    31a2:	66 1f       	adc	r22, r22
    31a4:	82 9f       	mul	r24, r18
    31a6:	22 27       	eor	r18, r18
    31a8:	b0 0d       	add	r27, r0
    31aa:	a1 1d       	adc	r26, r1
    31ac:	62 1f       	adc	r22, r18
    31ae:	73 9f       	mul	r23, r19
    31b0:	b0 0d       	add	r27, r0
    31b2:	a1 1d       	adc	r26, r1
    31b4:	62 1f       	adc	r22, r18
    31b6:	83 9f       	mul	r24, r19
    31b8:	a0 0d       	add	r26, r0
    31ba:	61 1d       	adc	r22, r1
    31bc:	22 1f       	adc	r18, r18
    31be:	74 9f       	mul	r23, r20
    31c0:	33 27       	eor	r19, r19
    31c2:	a0 0d       	add	r26, r0
    31c4:	61 1d       	adc	r22, r1
    31c6:	23 1f       	adc	r18, r19
    31c8:	84 9f       	mul	r24, r20
    31ca:	60 0d       	add	r22, r0
    31cc:	21 1d       	adc	r18, r1
    31ce:	82 2f       	mov	r24, r18
    31d0:	76 2f       	mov	r23, r22
    31d2:	6a 2f       	mov	r22, r26
    31d4:	11 24       	eor	r1, r1
    31d6:	9f 57       	subi	r25, 0x7F	; 127
    31d8:	50 40       	sbci	r21, 0x00	; 0
    31da:	8a f0       	brmi	.+34     	; 0x31fe <__mulsf3_pse+0x84>
    31dc:	e1 f0       	breq	.+56     	; 0x3216 <__mulsf3_pse+0x9c>
    31de:	88 23       	and	r24, r24
    31e0:	4a f0       	brmi	.+18     	; 0x31f4 <__mulsf3_pse+0x7a>
    31e2:	ee 0f       	add	r30, r30
    31e4:	ff 1f       	adc	r31, r31
    31e6:	bb 1f       	adc	r27, r27
    31e8:	66 1f       	adc	r22, r22
    31ea:	77 1f       	adc	r23, r23
    31ec:	88 1f       	adc	r24, r24
    31ee:	91 50       	subi	r25, 0x01	; 1
    31f0:	50 40       	sbci	r21, 0x00	; 0
    31f2:	a9 f7       	brne	.-22     	; 0x31de <__mulsf3_pse+0x64>
    31f4:	9e 3f       	cpi	r25, 0xFE	; 254
    31f6:	51 05       	cpc	r21, r1
    31f8:	70 f0       	brcs	.+28     	; 0x3216 <__mulsf3_pse+0x9c>
    31fa:	5c cf       	rjmp	.-328    	; 0x30b4 <__fp_inf>
    31fc:	a6 cf       	rjmp	.-180    	; 0x314a <__fp_szero>
    31fe:	5f 3f       	cpi	r21, 0xFF	; 255
    3200:	ec f3       	brlt	.-6      	; 0x31fc <__mulsf3_pse+0x82>
    3202:	98 3e       	cpi	r25, 0xE8	; 232
    3204:	dc f3       	brlt	.-10     	; 0x31fc <__mulsf3_pse+0x82>
    3206:	86 95       	lsr	r24
    3208:	77 95       	ror	r23
    320a:	67 95       	ror	r22
    320c:	b7 95       	ror	r27
    320e:	f7 95       	ror	r31
    3210:	e7 95       	ror	r30
    3212:	9f 5f       	subi	r25, 0xFF	; 255
    3214:	c1 f7       	brne	.-16     	; 0x3206 <__mulsf3_pse+0x8c>
    3216:	fe 2b       	or	r31, r30
    3218:	88 0f       	add	r24, r24
    321a:	91 1d       	adc	r25, r1
    321c:	96 95       	lsr	r25
    321e:	87 95       	ror	r24
    3220:	97 f9       	bld	r25, 7
    3222:	08 95       	ret

00003224 <__fp_cmp>:
    3224:	99 0f       	add	r25, r25
    3226:	00 08       	sbc	r0, r0
    3228:	55 0f       	add	r21, r21
    322a:	aa 0b       	sbc	r26, r26
    322c:	e0 e8       	ldi	r30, 0x80	; 128
    322e:	fe ef       	ldi	r31, 0xFE	; 254
    3230:	16 16       	cp	r1, r22
    3232:	17 06       	cpc	r1, r23
    3234:	e8 07       	cpc	r30, r24
    3236:	f9 07       	cpc	r31, r25
    3238:	c0 f0       	brcs	.+48     	; 0x326a <__fp_cmp+0x46>
    323a:	12 16       	cp	r1, r18
    323c:	13 06       	cpc	r1, r19
    323e:	e4 07       	cpc	r30, r20
    3240:	f5 07       	cpc	r31, r21
    3242:	98 f0       	brcs	.+38     	; 0x326a <__fp_cmp+0x46>
    3244:	62 1b       	sub	r22, r18
    3246:	73 0b       	sbc	r23, r19
    3248:	84 0b       	sbc	r24, r20
    324a:	95 0b       	sbc	r25, r21
    324c:	39 f4       	brne	.+14     	; 0x325c <__fp_cmp+0x38>
    324e:	0a 26       	eor	r0, r26
    3250:	61 f0       	breq	.+24     	; 0x326a <__fp_cmp+0x46>
    3252:	23 2b       	or	r18, r19
    3254:	24 2b       	or	r18, r20
    3256:	25 2b       	or	r18, r21
    3258:	21 f4       	brne	.+8      	; 0x3262 <__fp_cmp+0x3e>
    325a:	08 95       	ret
    325c:	0a 26       	eor	r0, r26
    325e:	09 f4       	brne	.+2      	; 0x3262 <__fp_cmp+0x3e>
    3260:	a1 40       	sbci	r26, 0x01	; 1
    3262:	a6 95       	lsr	r26
    3264:	8f ef       	ldi	r24, 0xFF	; 255
    3266:	81 1d       	adc	r24, r1
    3268:	81 1d       	adc	r24, r1
    326a:	08 95       	ret

0000326c <__udivmodqi4>:
    326c:	99 1b       	sub	r25, r25
    326e:	79 e0       	ldi	r23, 0x09	; 9
    3270:	04 c0       	rjmp	.+8      	; 0x327a <__udivmodqi4_ep>

00003272 <__udivmodqi4_loop>:
    3272:	99 1f       	adc	r25, r25
    3274:	96 17       	cp	r25, r22
    3276:	08 f0       	brcs	.+2      	; 0x327a <__udivmodqi4_ep>
    3278:	96 1b       	sub	r25, r22

0000327a <__udivmodqi4_ep>:
    327a:	88 1f       	adc	r24, r24
    327c:	7a 95       	dec	r23
    327e:	c9 f7       	brne	.-14     	; 0x3272 <__udivmodqi4_loop>
    3280:	80 95       	com	r24
    3282:	08 95       	ret

00003284 <__udivmodhi4>:
    3284:	aa 1b       	sub	r26, r26
    3286:	bb 1b       	sub	r27, r27
    3288:	51 e1       	ldi	r21, 0x11	; 17
    328a:	07 c0       	rjmp	.+14     	; 0x329a <__udivmodhi4_ep>

0000328c <__udivmodhi4_loop>:
    328c:	aa 1f       	adc	r26, r26
    328e:	bb 1f       	adc	r27, r27
    3290:	a6 17       	cp	r26, r22
    3292:	b7 07       	cpc	r27, r23
    3294:	10 f0       	brcs	.+4      	; 0x329a <__udivmodhi4_ep>
    3296:	a6 1b       	sub	r26, r22
    3298:	b7 0b       	sbc	r27, r23

0000329a <__udivmodhi4_ep>:
    329a:	88 1f       	adc	r24, r24
    329c:	99 1f       	adc	r25, r25
    329e:	5a 95       	dec	r21
    32a0:	a9 f7       	brne	.-22     	; 0x328c <__udivmodhi4_loop>
    32a2:	80 95       	com	r24
    32a4:	90 95       	com	r25
    32a6:	bc 01       	movw	r22, r24
    32a8:	cd 01       	movw	r24, r26
    32aa:	08 95       	ret

000032ac <__divmodhi4>:
    32ac:	97 fb       	bst	r25, 7
    32ae:	09 2e       	mov	r0, r25
    32b0:	07 26       	eor	r0, r23
    32b2:	0a d0       	rcall	.+20     	; 0x32c8 <__divmodhi4_neg1>
    32b4:	77 fd       	sbrc	r23, 7
    32b6:	04 d0       	rcall	.+8      	; 0x32c0 <__divmodhi4_neg2>
    32b8:	e5 df       	rcall	.-54     	; 0x3284 <__udivmodhi4>
    32ba:	06 d0       	rcall	.+12     	; 0x32c8 <__divmodhi4_neg1>
    32bc:	00 20       	and	r0, r0
    32be:	1a f4       	brpl	.+6      	; 0x32c6 <__divmodhi4_exit>

000032c0 <__divmodhi4_neg2>:
    32c0:	70 95       	com	r23
    32c2:	61 95       	neg	r22
    32c4:	7f 4f       	sbci	r23, 0xFF	; 255

000032c6 <__divmodhi4_exit>:
    32c6:	08 95       	ret

000032c8 <__divmodhi4_neg1>:
    32c8:	f6 f7       	brtc	.-4      	; 0x32c6 <__divmodhi4_exit>
    32ca:	90 95       	com	r25
    32cc:	81 95       	neg	r24
    32ce:	9f 4f       	sbci	r25, 0xFF	; 255
    32d0:	08 95       	ret

000032d2 <__ftoa_engine>:
    32d2:	28 30       	cpi	r18, 0x08	; 8
    32d4:	08 f0       	brcs	.+2      	; 0x32d8 <__ftoa_engine+0x6>
    32d6:	27 e0       	ldi	r18, 0x07	; 7
    32d8:	33 27       	eor	r19, r19
    32da:	da 01       	movw	r26, r20
    32dc:	99 0f       	add	r25, r25
    32de:	31 1d       	adc	r19, r1
    32e0:	87 fd       	sbrc	r24, 7
    32e2:	91 60       	ori	r25, 0x01	; 1
    32e4:	00 96       	adiw	r24, 0x00	; 0
    32e6:	61 05       	cpc	r22, r1
    32e8:	71 05       	cpc	r23, r1
    32ea:	39 f4       	brne	.+14     	; 0x32fa <__ftoa_engine+0x28>
    32ec:	32 60       	ori	r19, 0x02	; 2
    32ee:	2e 5f       	subi	r18, 0xFE	; 254
    32f0:	3d 93       	st	X+, r19
    32f2:	30 e3       	ldi	r19, 0x30	; 48
    32f4:	2a 95       	dec	r18
    32f6:	e1 f7       	brne	.-8      	; 0x32f0 <__ftoa_engine+0x1e>
    32f8:	08 95       	ret
    32fa:	9f 3f       	cpi	r25, 0xFF	; 255
    32fc:	30 f0       	brcs	.+12     	; 0x330a <__ftoa_engine+0x38>
    32fe:	80 38       	cpi	r24, 0x80	; 128
    3300:	71 05       	cpc	r23, r1
    3302:	61 05       	cpc	r22, r1
    3304:	09 f0       	breq	.+2      	; 0x3308 <__ftoa_engine+0x36>
    3306:	3c 5f       	subi	r19, 0xFC	; 252
    3308:	3c 5f       	subi	r19, 0xFC	; 252
    330a:	3d 93       	st	X+, r19
    330c:	91 30       	cpi	r25, 0x01	; 1
    330e:	08 f0       	brcs	.+2      	; 0x3312 <__ftoa_engine+0x40>
    3310:	80 68       	ori	r24, 0x80	; 128
    3312:	91 1d       	adc	r25, r1
    3314:	df 93       	push	r29
    3316:	cf 93       	push	r28
    3318:	1f 93       	push	r17
    331a:	0f 93       	push	r16
    331c:	ff 92       	push	r15
    331e:	ef 92       	push	r14
    3320:	19 2f       	mov	r17, r25
    3322:	98 7f       	andi	r25, 0xF8	; 248
    3324:	96 95       	lsr	r25
    3326:	e9 2f       	mov	r30, r25
    3328:	96 95       	lsr	r25
    332a:	96 95       	lsr	r25
    332c:	e9 0f       	add	r30, r25
    332e:	ff 27       	eor	r31, r31
    3330:	e2 51       	subi	r30, 0x12	; 18
    3332:	ff 4f       	sbci	r31, 0xFF	; 255
    3334:	99 27       	eor	r25, r25
    3336:	33 27       	eor	r19, r19
    3338:	ee 24       	eor	r14, r14
    333a:	ff 24       	eor	r15, r15
    333c:	a7 01       	movw	r20, r14
    333e:	e7 01       	movw	r28, r14
    3340:	05 90       	lpm	r0, Z+
    3342:	08 94       	sec
    3344:	07 94       	ror	r0
    3346:	28 f4       	brcc	.+10     	; 0x3352 <__ftoa_engine+0x80>
    3348:	36 0f       	add	r19, r22
    334a:	e7 1e       	adc	r14, r23
    334c:	f8 1e       	adc	r15, r24
    334e:	49 1f       	adc	r20, r25
    3350:	51 1d       	adc	r21, r1
    3352:	66 0f       	add	r22, r22
    3354:	77 1f       	adc	r23, r23
    3356:	88 1f       	adc	r24, r24
    3358:	99 1f       	adc	r25, r25
    335a:	06 94       	lsr	r0
    335c:	a1 f7       	brne	.-24     	; 0x3346 <__ftoa_engine+0x74>
    335e:	05 90       	lpm	r0, Z+
    3360:	07 94       	ror	r0
    3362:	28 f4       	brcc	.+10     	; 0x336e <__ftoa_engine+0x9c>
    3364:	e7 0e       	add	r14, r23
    3366:	f8 1e       	adc	r15, r24
    3368:	49 1f       	adc	r20, r25
    336a:	56 1f       	adc	r21, r22
    336c:	c1 1d       	adc	r28, r1
    336e:	77 0f       	add	r23, r23
    3370:	88 1f       	adc	r24, r24
    3372:	99 1f       	adc	r25, r25
    3374:	66 1f       	adc	r22, r22
    3376:	06 94       	lsr	r0
    3378:	a1 f7       	brne	.-24     	; 0x3362 <__ftoa_engine+0x90>
    337a:	05 90       	lpm	r0, Z+
    337c:	07 94       	ror	r0
    337e:	28 f4       	brcc	.+10     	; 0x338a <__ftoa_engine+0xb8>
    3380:	f8 0e       	add	r15, r24
    3382:	49 1f       	adc	r20, r25
    3384:	56 1f       	adc	r21, r22
    3386:	c7 1f       	adc	r28, r23
    3388:	d1 1d       	adc	r29, r1
    338a:	88 0f       	add	r24, r24
    338c:	99 1f       	adc	r25, r25
    338e:	66 1f       	adc	r22, r22
    3390:	77 1f       	adc	r23, r23
    3392:	06 94       	lsr	r0
    3394:	a1 f7       	brne	.-24     	; 0x337e <__ftoa_engine+0xac>
    3396:	05 90       	lpm	r0, Z+
    3398:	07 94       	ror	r0
    339a:	20 f4       	brcc	.+8      	; 0x33a4 <__ftoa_engine+0xd2>
    339c:	49 0f       	add	r20, r25
    339e:	56 1f       	adc	r21, r22
    33a0:	c7 1f       	adc	r28, r23
    33a2:	d8 1f       	adc	r29, r24
    33a4:	99 0f       	add	r25, r25
    33a6:	66 1f       	adc	r22, r22
    33a8:	77 1f       	adc	r23, r23
    33aa:	88 1f       	adc	r24, r24
    33ac:	06 94       	lsr	r0
    33ae:	a9 f7       	brne	.-22     	; 0x339a <__ftoa_engine+0xc8>
    33b0:	84 91       	lpm	r24, Z+
    33b2:	10 95       	com	r17
    33b4:	17 70       	andi	r17, 0x07	; 7
    33b6:	41 f0       	breq	.+16     	; 0x33c8 <__ftoa_engine+0xf6>
    33b8:	d6 95       	lsr	r29
    33ba:	c7 95       	ror	r28
    33bc:	57 95       	ror	r21
    33be:	47 95       	ror	r20
    33c0:	f7 94       	ror	r15
    33c2:	e7 94       	ror	r14
    33c4:	1a 95       	dec	r17
    33c6:	c1 f7       	brne	.-16     	; 0x33b8 <__ftoa_engine+0xe6>
    33c8:	e4 e9       	ldi	r30, 0x94	; 148
    33ca:	f0 e0       	ldi	r31, 0x00	; 0
    33cc:	68 94       	set
    33ce:	15 90       	lpm	r1, Z+
    33d0:	15 91       	lpm	r17, Z+
    33d2:	35 91       	lpm	r19, Z+
    33d4:	65 91       	lpm	r22, Z+
    33d6:	95 91       	lpm	r25, Z+
    33d8:	05 90       	lpm	r0, Z+
    33da:	7f e2       	ldi	r23, 0x2F	; 47
    33dc:	73 95       	inc	r23
    33de:	e1 18       	sub	r14, r1
    33e0:	f1 0a       	sbc	r15, r17
    33e2:	43 0b       	sbc	r20, r19
    33e4:	56 0b       	sbc	r21, r22
    33e6:	c9 0b       	sbc	r28, r25
    33e8:	d0 09       	sbc	r29, r0
    33ea:	c0 f7       	brcc	.-16     	; 0x33dc <__ftoa_engine+0x10a>
    33ec:	e1 0c       	add	r14, r1
    33ee:	f1 1e       	adc	r15, r17
    33f0:	43 1f       	adc	r20, r19
    33f2:	56 1f       	adc	r21, r22
    33f4:	c9 1f       	adc	r28, r25
    33f6:	d0 1d       	adc	r29, r0
    33f8:	7e f4       	brtc	.+30     	; 0x3418 <__ftoa_engine+0x146>
    33fa:	70 33       	cpi	r23, 0x30	; 48
    33fc:	11 f4       	brne	.+4      	; 0x3402 <__ftoa_engine+0x130>
    33fe:	8a 95       	dec	r24
    3400:	e6 cf       	rjmp	.-52     	; 0x33ce <__ftoa_engine+0xfc>
    3402:	e8 94       	clt
    3404:	01 50       	subi	r16, 0x01	; 1
    3406:	30 f0       	brcs	.+12     	; 0x3414 <__ftoa_engine+0x142>
    3408:	08 0f       	add	r16, r24
    340a:	0a f4       	brpl	.+2      	; 0x340e <__ftoa_engine+0x13c>
    340c:	00 27       	eor	r16, r16
    340e:	02 17       	cp	r16, r18
    3410:	08 f4       	brcc	.+2      	; 0x3414 <__ftoa_engine+0x142>
    3412:	20 2f       	mov	r18, r16
    3414:	23 95       	inc	r18
    3416:	02 2f       	mov	r16, r18
    3418:	7a 33       	cpi	r23, 0x3A	; 58
    341a:	28 f0       	brcs	.+10     	; 0x3426 <__ftoa_engine+0x154>
    341c:	79 e3       	ldi	r23, 0x39	; 57
    341e:	7d 93       	st	X+, r23
    3420:	2a 95       	dec	r18
    3422:	e9 f7       	brne	.-6      	; 0x341e <__ftoa_engine+0x14c>
    3424:	10 c0       	rjmp	.+32     	; 0x3446 <__ftoa_engine+0x174>
    3426:	7d 93       	st	X+, r23
    3428:	2a 95       	dec	r18
    342a:	89 f6       	brne	.-94     	; 0x33ce <__ftoa_engine+0xfc>
    342c:	06 94       	lsr	r0
    342e:	97 95       	ror	r25
    3430:	67 95       	ror	r22
    3432:	37 95       	ror	r19
    3434:	17 95       	ror	r17
    3436:	17 94       	ror	r1
    3438:	e1 18       	sub	r14, r1
    343a:	f1 0a       	sbc	r15, r17
    343c:	43 0b       	sbc	r20, r19
    343e:	56 0b       	sbc	r21, r22
    3440:	c9 0b       	sbc	r28, r25
    3442:	d0 09       	sbc	r29, r0
    3444:	98 f0       	brcs	.+38     	; 0x346c <__ftoa_engine+0x19a>
    3446:	23 95       	inc	r18
    3448:	7e 91       	ld	r23, -X
    344a:	73 95       	inc	r23
    344c:	7a 33       	cpi	r23, 0x3A	; 58
    344e:	08 f0       	brcs	.+2      	; 0x3452 <__ftoa_engine+0x180>
    3450:	70 e3       	ldi	r23, 0x30	; 48
    3452:	7c 93       	st	X, r23
    3454:	20 13       	cpse	r18, r16
    3456:	b8 f7       	brcc	.-18     	; 0x3446 <__ftoa_engine+0x174>
    3458:	7e 91       	ld	r23, -X
    345a:	70 61       	ori	r23, 0x10	; 16
    345c:	7d 93       	st	X+, r23
    345e:	30 f0       	brcs	.+12     	; 0x346c <__ftoa_engine+0x19a>
    3460:	83 95       	inc	r24
    3462:	71 e3       	ldi	r23, 0x31	; 49
    3464:	7d 93       	st	X+, r23
    3466:	70 e3       	ldi	r23, 0x30	; 48
    3468:	2a 95       	dec	r18
    346a:	e1 f7       	brne	.-8      	; 0x3464 <__ftoa_engine+0x192>
    346c:	11 24       	eor	r1, r1
    346e:	ef 90       	pop	r14
    3470:	ff 90       	pop	r15
    3472:	0f 91       	pop	r16
    3474:	1f 91       	pop	r17
    3476:	cf 91       	pop	r28
    3478:	df 91       	pop	r29
    347a:	99 27       	eor	r25, r25
    347c:	87 fd       	sbrc	r24, 7
    347e:	90 95       	com	r25
    3480:	08 95       	ret

00003482 <strnlen_P>:
    3482:	fc 01       	movw	r30, r24
    3484:	05 90       	lpm	r0, Z+
    3486:	61 50       	subi	r22, 0x01	; 1
    3488:	70 40       	sbci	r23, 0x00	; 0
    348a:	01 10       	cpse	r0, r1
    348c:	d8 f7       	brcc	.-10     	; 0x3484 <strnlen_P+0x2>
    348e:	80 95       	com	r24
    3490:	90 95       	com	r25
    3492:	8e 0f       	add	r24, r30
    3494:	9f 1f       	adc	r25, r31
    3496:	08 95       	ret

00003498 <strnlen>:
    3498:	fc 01       	movw	r30, r24
    349a:	61 50       	subi	r22, 0x01	; 1
    349c:	70 40       	sbci	r23, 0x00	; 0
    349e:	01 90       	ld	r0, Z+
    34a0:	01 10       	cpse	r0, r1
    34a2:	d8 f7       	brcc	.-10     	; 0x349a <strnlen+0x2>
    34a4:	80 95       	com	r24
    34a6:	90 95       	com	r25
    34a8:	8e 0f       	add	r24, r30
    34aa:	9f 1f       	adc	r25, r31
    34ac:	08 95       	ret

000034ae <fputc>:
    34ae:	0f 93       	push	r16
    34b0:	1f 93       	push	r17
    34b2:	cf 93       	push	r28
    34b4:	df 93       	push	r29
    34b6:	8c 01       	movw	r16, r24
    34b8:	eb 01       	movw	r28, r22
    34ba:	8b 81       	ldd	r24, Y+3	; 0x03
    34bc:	81 ff       	sbrs	r24, 1
    34be:	1b c0       	rjmp	.+54     	; 0x34f6 <fputc+0x48>
    34c0:	82 ff       	sbrs	r24, 2
    34c2:	0d c0       	rjmp	.+26     	; 0x34de <fputc+0x30>
    34c4:	2e 81       	ldd	r18, Y+6	; 0x06
    34c6:	3f 81       	ldd	r19, Y+7	; 0x07
    34c8:	8c 81       	ldd	r24, Y+4	; 0x04
    34ca:	9d 81       	ldd	r25, Y+5	; 0x05
    34cc:	28 17       	cp	r18, r24
    34ce:	39 07       	cpc	r19, r25
    34d0:	64 f4       	brge	.+24     	; 0x34ea <fputc+0x3c>
    34d2:	e8 81       	ld	r30, Y
    34d4:	f9 81       	ldd	r31, Y+1	; 0x01
    34d6:	01 93       	st	Z+, r16
    34d8:	f9 83       	std	Y+1, r31	; 0x01
    34da:	e8 83       	st	Y, r30
    34dc:	06 c0       	rjmp	.+12     	; 0x34ea <fputc+0x3c>
    34de:	e8 85       	ldd	r30, Y+8	; 0x08
    34e0:	f9 85       	ldd	r31, Y+9	; 0x09
    34e2:	80 2f       	mov	r24, r16
    34e4:	09 95       	icall
    34e6:	00 97       	sbiw	r24, 0x00	; 0
    34e8:	31 f4       	brne	.+12     	; 0x34f6 <fputc+0x48>
    34ea:	8e 81       	ldd	r24, Y+6	; 0x06
    34ec:	9f 81       	ldd	r25, Y+7	; 0x07
    34ee:	01 96       	adiw	r24, 0x01	; 1
    34f0:	9f 83       	std	Y+7, r25	; 0x07
    34f2:	8e 83       	std	Y+6, r24	; 0x06
    34f4:	02 c0       	rjmp	.+4      	; 0x34fa <fputc+0x4c>
    34f6:	0f ef       	ldi	r16, 0xFF	; 255
    34f8:	1f ef       	ldi	r17, 0xFF	; 255
    34fa:	c8 01       	movw	r24, r16
    34fc:	df 91       	pop	r29
    34fe:	cf 91       	pop	r28
    3500:	1f 91       	pop	r17
    3502:	0f 91       	pop	r16
    3504:	08 95       	ret

00003506 <sprintf>:
    3506:	0f 93       	push	r16
    3508:	1f 93       	push	r17
    350a:	df 93       	push	r29
    350c:	cf 93       	push	r28
    350e:	cd b7       	in	r28, 0x3d	; 61
    3510:	de b7       	in	r29, 0x3e	; 62
    3512:	2e 97       	sbiw	r28, 0x0e	; 14
    3514:	0f b6       	in	r0, 0x3f	; 63
    3516:	f8 94       	cli
    3518:	de bf       	out	0x3e, r29	; 62
    351a:	0f be       	out	0x3f, r0	; 63
    351c:	cd bf       	out	0x3d, r28	; 61
    351e:	0d 89       	ldd	r16, Y+21	; 0x15
    3520:	1e 89       	ldd	r17, Y+22	; 0x16
    3522:	86 e0       	ldi	r24, 0x06	; 6
    3524:	8c 83       	std	Y+4, r24	; 0x04
    3526:	1a 83       	std	Y+2, r17	; 0x02
    3528:	09 83       	std	Y+1, r16	; 0x01
    352a:	8f ef       	ldi	r24, 0xFF	; 255
    352c:	9f e7       	ldi	r25, 0x7F	; 127
    352e:	9e 83       	std	Y+6, r25	; 0x06
    3530:	8d 83       	std	Y+5, r24	; 0x05
    3532:	9e 01       	movw	r18, r28
    3534:	27 5e       	subi	r18, 0xE7	; 231
    3536:	3f 4f       	sbci	r19, 0xFF	; 255
    3538:	ce 01       	movw	r24, r28
    353a:	01 96       	adiw	r24, 0x01	; 1
    353c:	6f 89       	ldd	r22, Y+23	; 0x17
    353e:	78 8d       	ldd	r23, Y+24	; 0x18
    3540:	a9 01       	movw	r20, r18
    3542:	0e 94 70 13 	call	0x26e0	; 0x26e0 <vfprintf>
    3546:	ef 81       	ldd	r30, Y+7	; 0x07
    3548:	f8 85       	ldd	r31, Y+8	; 0x08
    354a:	e0 0f       	add	r30, r16
    354c:	f1 1f       	adc	r31, r17
    354e:	10 82       	st	Z, r1
    3550:	2e 96       	adiw	r28, 0x0e	; 14
    3552:	0f b6       	in	r0, 0x3f	; 63
    3554:	f8 94       	cli
    3556:	de bf       	out	0x3e, r29	; 62
    3558:	0f be       	out	0x3f, r0	; 63
    355a:	cd bf       	out	0x3d, r28	; 61
    355c:	cf 91       	pop	r28
    355e:	df 91       	pop	r29
    3560:	1f 91       	pop	r17
    3562:	0f 91       	pop	r16
    3564:	08 95       	ret

00003566 <__ultoa_invert>:
    3566:	fa 01       	movw	r30, r20
    3568:	aa 27       	eor	r26, r26
    356a:	28 30       	cpi	r18, 0x08	; 8
    356c:	51 f1       	breq	.+84     	; 0x35c2 <__ultoa_invert+0x5c>
    356e:	20 31       	cpi	r18, 0x10	; 16
    3570:	81 f1       	breq	.+96     	; 0x35d2 <__ultoa_invert+0x6c>
    3572:	e8 94       	clt
    3574:	6f 93       	push	r22
    3576:	6e 7f       	andi	r22, 0xFE	; 254
    3578:	6e 5f       	subi	r22, 0xFE	; 254
    357a:	7f 4f       	sbci	r23, 0xFF	; 255
    357c:	8f 4f       	sbci	r24, 0xFF	; 255
    357e:	9f 4f       	sbci	r25, 0xFF	; 255
    3580:	af 4f       	sbci	r26, 0xFF	; 255
    3582:	b1 e0       	ldi	r27, 0x01	; 1
    3584:	3e d0       	rcall	.+124    	; 0x3602 <__ultoa_invert+0x9c>
    3586:	b4 e0       	ldi	r27, 0x04	; 4
    3588:	3c d0       	rcall	.+120    	; 0x3602 <__ultoa_invert+0x9c>
    358a:	67 0f       	add	r22, r23
    358c:	78 1f       	adc	r23, r24
    358e:	89 1f       	adc	r24, r25
    3590:	9a 1f       	adc	r25, r26
    3592:	a1 1d       	adc	r26, r1
    3594:	68 0f       	add	r22, r24
    3596:	79 1f       	adc	r23, r25
    3598:	8a 1f       	adc	r24, r26
    359a:	91 1d       	adc	r25, r1
    359c:	a1 1d       	adc	r26, r1
    359e:	6a 0f       	add	r22, r26
    35a0:	71 1d       	adc	r23, r1
    35a2:	81 1d       	adc	r24, r1
    35a4:	91 1d       	adc	r25, r1
    35a6:	a1 1d       	adc	r26, r1
    35a8:	20 d0       	rcall	.+64     	; 0x35ea <__ultoa_invert+0x84>
    35aa:	09 f4       	brne	.+2      	; 0x35ae <__ultoa_invert+0x48>
    35ac:	68 94       	set
    35ae:	3f 91       	pop	r19
    35b0:	2a e0       	ldi	r18, 0x0A	; 10
    35b2:	26 9f       	mul	r18, r22
    35b4:	11 24       	eor	r1, r1
    35b6:	30 19       	sub	r19, r0
    35b8:	30 5d       	subi	r19, 0xD0	; 208
    35ba:	31 93       	st	Z+, r19
    35bc:	de f6       	brtc	.-74     	; 0x3574 <__ultoa_invert+0xe>
    35be:	cf 01       	movw	r24, r30
    35c0:	08 95       	ret
    35c2:	46 2f       	mov	r20, r22
    35c4:	47 70       	andi	r20, 0x07	; 7
    35c6:	40 5d       	subi	r20, 0xD0	; 208
    35c8:	41 93       	st	Z+, r20
    35ca:	b3 e0       	ldi	r27, 0x03	; 3
    35cc:	0f d0       	rcall	.+30     	; 0x35ec <__ultoa_invert+0x86>
    35ce:	c9 f7       	brne	.-14     	; 0x35c2 <__ultoa_invert+0x5c>
    35d0:	f6 cf       	rjmp	.-20     	; 0x35be <__ultoa_invert+0x58>
    35d2:	46 2f       	mov	r20, r22
    35d4:	4f 70       	andi	r20, 0x0F	; 15
    35d6:	40 5d       	subi	r20, 0xD0	; 208
    35d8:	4a 33       	cpi	r20, 0x3A	; 58
    35da:	18 f0       	brcs	.+6      	; 0x35e2 <__ultoa_invert+0x7c>
    35dc:	49 5d       	subi	r20, 0xD9	; 217
    35de:	31 fd       	sbrc	r19, 1
    35e0:	40 52       	subi	r20, 0x20	; 32
    35e2:	41 93       	st	Z+, r20
    35e4:	02 d0       	rcall	.+4      	; 0x35ea <__ultoa_invert+0x84>
    35e6:	a9 f7       	brne	.-22     	; 0x35d2 <__ultoa_invert+0x6c>
    35e8:	ea cf       	rjmp	.-44     	; 0x35be <__ultoa_invert+0x58>
    35ea:	b4 e0       	ldi	r27, 0x04	; 4
    35ec:	a6 95       	lsr	r26
    35ee:	97 95       	ror	r25
    35f0:	87 95       	ror	r24
    35f2:	77 95       	ror	r23
    35f4:	67 95       	ror	r22
    35f6:	ba 95       	dec	r27
    35f8:	c9 f7       	brne	.-14     	; 0x35ec <__ultoa_invert+0x86>
    35fa:	00 97       	sbiw	r24, 0x00	; 0
    35fc:	61 05       	cpc	r22, r1
    35fe:	71 05       	cpc	r23, r1
    3600:	08 95       	ret
    3602:	9b 01       	movw	r18, r22
    3604:	ac 01       	movw	r20, r24
    3606:	0a 2e       	mov	r0, r26
    3608:	06 94       	lsr	r0
    360a:	57 95       	ror	r21
    360c:	47 95       	ror	r20
    360e:	37 95       	ror	r19
    3610:	27 95       	ror	r18
    3612:	ba 95       	dec	r27
    3614:	c9 f7       	brne	.-14     	; 0x3608 <__ultoa_invert+0xa2>
    3616:	62 0f       	add	r22, r18
    3618:	73 1f       	adc	r23, r19
    361a:	84 1f       	adc	r24, r20
    361c:	95 1f       	adc	r25, r21
    361e:	a0 1d       	adc	r26, r0
    3620:	08 95       	ret

00003622 <_exit>:
    3622:	f8 94       	cli

00003624 <__stop_program>:
    3624:	ff cf       	rjmp	.-2      	; 0x3624 <__stop_program>
